ccopy_reg
_reconstructor
p0
(cGeditLaTeXPlugin.src.latex.model
LanguageModel
p1
c__builtin__
object
p2
Ntp3
Rp4
(dp5
S'_LanguageModel__newcommands'
p6
(lp7
sS'commands'
p8
(dp9
Vdoteq
p10
g0
(cGeditLaTeXPlugin.src.latex.model
Command
p11
g2
Ntp12
Rp13
(dp14
S'_children'
p15
(lp16
sS'type'
p17
I1
sS'name'
p18
g10
sS'package'
p19
NsbsVpartial
p20
g0
(g11
g2
Ntp21
Rp22
(dp23
g15
(lp24
sg17
I1
sg18
g20
sg19
NsbsVcolumnwidth
p25
g0
(g11
g2
Ntp26
Rp27
(dp28
g15
(lp29
sg17
I1
sg18
g25
sg19
NsbsVbreve
p30
g0
(g11
g2
Ntp31
Rp32
(dp33
g15
(lp34
g0
(cGeditLaTeXPlugin.src.latex.model
MandatoryArgument
p35
g2
Ntp36
Rp37
(dp38
g15
(lp39
sg17
I2
sS'label'
p40
VText
p41
sg19
Nsbasg17
I1
sg18
Vbreve
p42
sg19
NsbsVmaketitle
p43
g0
(g11
g2
Ntp44
Rp45
(dp46
g15
(lp47
sg17
I1
sg18
g43
sg19
NsbsVgg
p48
g0
(g11
g2
Ntp49
Rp50
(dp51
g15
(lp52
sg17
I1
sg18
g48
sg19
NsbsVge
p53
g0
(g11
g2
Ntp54
Rp55
(dp56
g15
(lp57
sg17
I1
sg18
g53
sg19
NsbsVasymp
p58
g0
(g11
g2
Ntp59
Rp60
(dp61
g15
(lp62
sg17
I1
sg18
g58
sg19
NsbsVotimes
p63
g0
(g11
g2
Ntp64
Rp65
(dp66
g15
(lp67
sg17
I1
sg18
g63
sg19
NsbsVlstset
p68
g0
(g11
g2
Ntp69
Rp70
(dp71
g15
(lp72
g0
(g35
g2
Ntp73
Rp74
(dp75
g15
(lp76
sg17
I2
sg40
VOptions
p77
sg19
Nsbasg17
I1
sg18
g68
sg19
NsbsVvfill
p78
g0
(g11
g2
Ntp79
Rp80
(dp81
g15
(lp82
sg17
I1
sg18
g78
sg19
NsbsVtt
p83
g0
(g11
g2
Ntp84
Rp85
(dp86
g15
(lp87
sg17
I1
sg18
g83
sg19
NsbsVLongleftarrow
p88
g0
(g11
g2
Ntp89
Rp90
(dp91
g15
(lp92
sg17
I1
sg18
g88
sg19
NsbsVvarpi
p93
g0
(g11
g2
Ntp94
Rp95
(dp96
g15
(lp97
sg17
I1
sg18
g93
sg19
NsbsVto
p98
g0
(g11
g2
Ntp99
Rp100
(dp101
g15
(lp102
sg17
I1
sg18
g98
sg19
NsbsVvee
p103
g0
(g11
g2
Ntp104
Rp105
(dp106
g15
(lp107
sg17
I1
sg18
g103
sg19
NsbsVvec
p108
g0
(g11
g2
Ntp109
Rp110
(dp111
g15
(lp112
g0
(g35
g2
Ntp113
Rp114
(dp115
g15
(lp116
sg17
I2
sg40
VText
p117
sg19
Nsbasg17
I1
sg18
g108
sg19
NsbsVsmile
p118
g0
(g11
g2
Ntp119
Rp120
(dp121
g15
(lp122
sg17
I1
sg18
g118
sg19
NsbsVinclude
p123
g0
(g11
g2
Ntp124
Rp125
(dp126
g15
(lp127
g0
(g35
g2
Ntp128
Rp129
(dp130
g15
(lp131
g0
(cGeditLaTeXPlugin.src.latex.model
Placeholder
p132
g2
Ntp133
Rp134
(dp135
g15
(lp136
sg17
I5
sg18
VTexFiles
p137
sg19
Nsbasg17
I2
sg40
VFile
p138
sg19
Nsbasg17
I1
sg18
g123
sg19
NsbsVvarrho
p139
g0
(g11
g2
Ntp140
Rp141
(dp142
g15
(lp143
sg17
I1
sg18
g139
sg19
NsbsVthispagestyle
p144
g0
(g11
g2
Ntp145
Rp146
(dp147
g15
(lp148
g0
(g35
g2
Ntp149
Rp150
(dp151
g15
(lp152
g0
(cGeditLaTeXPlugin.src.latex.model
Choice
p153
g2
Ntp154
Rp155
(dp156
g15
(lp157
sg17
I4
sS'details'
p158
NsS'value'
p159
Vplain
p160
sg19
Nsbag0
(g153
g2
Ntp161
Rp162
(dp163
g15
(lp164
sg17
I4
sg158
Nsg159
Vempty
p165
sg19
Nsbag0
(g153
g2
Ntp166
Rp167
(dp168
g15
(lp169
sg17
I4
sg158
Nsg159
Vheadings
p170
sg19
Nsbag0
(g153
g2
Ntp171
Rp172
(dp173
g15
(lp174
sg17
I4
sg158
Nsg159
Vmyheadings
p175
sg19
Nsbasg17
I2
sg40
VType
p176
sg19
Nsbasg17
I1
sg18
g144
sg19
NsbsVtextsc
p177
g0
(g11
g2
Ntp178
Rp179
(dp180
g15
(lp181
g0
(g35
g2
Ntp182
Rp183
(dp184
g15
(lp185
sg17
I2
sg40
VText
p186
sg19
Nsbasg17
I1
sg18
g177
sg19
NsbsVdim
p187
g0
(g11
g2
Ntp188
Rp189
(dp190
g15
(lp191
sg17
I1
sg18
g187
sg19
NsbsVbaselinestretch
p192
g0
(g11
g2
Ntp193
Rp194
(dp195
g15
(lp196
sg17
I1
sg18
g192
sg19
NsbsVmathit
p197
g0
(g11
g2
Ntp198
Rp199
(dp200
g15
(lp201
g0
(g35
g2
Ntp202
Rp203
(dp204
g15
(lp205
sg17
I2
sg40
VFormula
p206
sg19
Nsbasg17
I1
sg18
g197
sg19
NsbsVbigodot
p207
g0
(g11
g2
Ntp208
Rp209
(dp210
g15
(lp211
sg17
I1
sg18
g207
sg19
NsbsVlarge
p212
g0
(g11
g2
Ntp213
Rp214
(dp215
g15
(lp216
sg17
I1
sg18
g212
sg19
NsbsVitem
p217
g0
(g11
g2
Ntp218
Rp219
(dp220
g15
(lp221
g0
(cGeditLaTeXPlugin.src.latex.model
OptionalArgument
p222
g2
Ntp223
Rp224
(dp225
g15
(lp226
sg17
I3
sg40
VMarker
p227
sg19
Nsbasg17
I1
sg18
g217
sg19
NsbsVvector
p228
g0
(g11
g2
Ntp229
Rp230
(dp231
g15
(lp232
g0
(g35
g2
Ntp233
Rp234
(dp235
g15
(lp236
sg17
I2
sg40
S''
p237
sg19
Nsbag0
(g35
g2
Ntp238
Rp239
(dp240
g15
(lp241
sg17
I2
sg40
VLength
p242
sg19
Nsbasg17
I1
sg18
g228
sg19
NsbsVframebox
p243
g0
(g11
g2
Ntp244
Rp245
(dp246
g15
(lp247
g0
(g222
g2
Ntp248
Rp249
(dp250
g15
(lp251
sg17
I3
sg40
VWidth
p252
sg19
Nsbag0
(g222
g2
Ntp253
Rp254
(dp255
g15
(lp256
sg17
I3
sg40
VAlignment
p257
sg19
Nsbag0
(g35
g2
Ntp258
Rp259
(dp260
g15
(lp261
sg17
I2
sg40
VText
p262
sg19
Nsbasg17
I1
sg18
g243
sg19
NsbsVsmall
p263
g0
(g11
g2
Ntp264
Rp265
(dp266
g15
(lp267
sg17
I1
sg18
g263
sg19
NsbsVdiv
p268
g0
(g11
g2
Ntp269
Rp270
(dp271
g15
(lp272
sg17
I1
sg18
g268
sg19
NsbsVscriptsize
p273
g0
(g11
g2
Ntp274
Rp275
(dp276
g15
(lp277
sg17
I1
sg18
g273
sg19
NsbsVfancyfoot
p278
g0
(g11
g2
Ntp279
Rp280
(dp281
g15
(lp282
g0
(g222
g2
Ntp283
Rp284
(dp285
g15
(lp286
sg17
I3
sg40
VPosition
p287
sg19
Nsbag0
(g35
g2
Ntp288
Rp289
(dp290
g15
(lp291
sg17
I2
sg40
VText
p292
sg19
Nsbasg17
I1
sg18
g278
sg19
NsbsVLaTeX
p293
g0
(g11
g2
Ntp294
Rp295
(dp296
g15
(lp297
sg17
I1
sg18
g293
sg19
NsbsVLeftarrow
p298
g0
(g11
g2
Ntp299
Rp300
(dp301
g15
(lp302
sg17
I1
sg18
g298
sg19
NsbsVcosh
p303
g0
(g11
g2
Ntp304
Rp305
(dp306
g15
(lp307
sg17
I1
sg18
g303
sg19
NsbsVTheta
p308
g0
(g11
g2
Ntp309
Rp310
(dp311
g15
(lp312
sg17
I1
sg18
g308
sg19
NsbsVtextcolor
p313
g0
(g11
g2
Ntp314
Rp315
(dp316
g15
(lp317
g0
(g35
g2
Ntp318
Rp319
(dp320
g15
(lp321
g0
(g132
g2
Ntp322
Rp323
(dp324
g15
(lp325
sg17
I5
sg18
VColors
p326
sg19
Nsbasg17
I2
sg40
VName
p327
sg19
Nsbag0
(g35
g2
Ntp328
Rp329
(dp330
g15
(lp331
sg17
I2
sg40
VText
p332
sg19
Nsbasg17
I1
sg18
g313
sg19
Vcolor
p333
sbsVlistoftables
p334
g0
(g11
g2
Ntp335
Rp336
(dp337
g15
(lp338
sg17
I1
sg18
g334
sg19
NsbsVcentering
p339
g0
(g11
g2
Ntp340
Rp341
(dp342
g15
(lp343
sg17
I1
sg18
g339
sg19
NsbsVneg
p344
g0
(g11
g2
Ntp345
Rp346
(dp347
g15
(lp348
sg17
I1
sg18
g344
sg19
NsbsVsection
p349
g0
(g11
g2
Ntp350
Rp351
(dp352
g15
(lp353
g0
(g222
g2
Ntp354
Rp355
(dp356
g15
(lp357
sg17
I3
sg40
VAlternative
p358
sg19
Nsbag0
(g35
g2
Ntp359
Rp360
(dp361
g15
(lp362
sg17
I2
sg40
VHeading
p363
sg19
Nsbasg17
I1
sg18
g349
sg19
NsbsVsup
p364
g0
(g11
g2
Ntp365
Rp366
(dp367
g15
(lp368
sg17
I1
sg18
g364
sg19
NsbsVincludepdfmerge
p369
g0
(g11
g2
Ntp370
Rp371
(dp372
g15
(lp373
g0
(g222
g2
Ntp374
Rp375
(dp376
g15
(lp377
sg17
I3
sg40
VLocalOptions
p378
sg19
Nsbag0
(g35
g2
Ntp379
Rp380
(dp381
g15
(lp382
sg17
I2
sg40
VFilenames
p383
sg19
Nsbasg17
I1
sg18
g369
sg19
Vpdfpages
p384
sbsVfancyhf
p385
g0
(g11
g2
Ntp386
Rp387
(dp388
g15
(lp389
g0
(g222
g2
Ntp390
Rp391
(dp392
g15
(lp393
sg17
I3
sg40
VPosition
p394
sg19
Nsbag0
(g35
g2
Ntp395
Rp396
(dp397
g15
(lp398
sg17
I2
sg40
VText
p399
sg19
Nsbasg17
I1
sg18
g385
sg19
NsbsVneq
p400
g0
(g11
g2
Ntp401
Rp402
(dp403
g15
(lp404
sg17
I1
sg18
g400
sg19
NsbsVlimsup
p405
g0
(g11
g2
Ntp406
Rp407
(dp408
g15
(lp409
sg17
I1
sg18
g405
sg19
NsbsVamalg
p410
g0
(g11
g2
Ntp411
Rp412
(dp413
g15
(lp414
sg17
I1
sg18
g410
sg19
NsbsVbowtie
p415
g0
(g11
g2
Ntp416
Rp417
(dp418
g15
(lp419
sg17
I1
sg18
g415
sg19
NsbsVpagestyle
p420
g0
(g11
g2
Ntp421
Rp422
(dp423
g15
(lp424
g0
(g35
g2
Ntp425
Rp426
(dp427
g15
(lp428
g0
(g153
g2
Ntp429
Rp430
(dp431
g15
(lp432
sg17
I4
sg158
Nsg159
Vplain
p433
sg19
Nsbag0
(g153
g2
Ntp434
Rp435
(dp436
g15
(lp437
sg17
I4
sg158
Nsg159
Vempty
p438
sg19
Nsbag0
(g153
g2
Ntp439
Rp440
(dp441
g15
(lp442
sg17
I4
sg158
Nsg159
Vheadings
p443
sg19
Nsbag0
(g153
g2
Ntp444
Rp445
(dp446
g15
(lp447
sg17
I4
sg158
Nsg159
Vmyheadings
p448
sg19
Nsbasg17
I2
sg40
VType
p449
sg19
Nsbasg17
I1
sg18
g420
sg19
NsbsVbibitem
p450
g0
(g11
g2
Ntp451
Rp452
(dp453
g15
(lp454
g0
(g222
g2
Ntp455
Rp456
(dp457
g15
(lp458
sg17
I3
sg40
VMarker
p459
sg19
Nsbag0
(g35
g2
Ntp460
Rp461
(dp462
g15
(lp463
sg17
I2
sg40
VIdentifier
p464
sg19
Nsbasg17
I1
sg18
g450
sg19
NsbsVvarsigma
p465
g0
(g11
g2
Ntp466
Rp467
(dp468
g15
(lp469
sg17
I1
sg18
g465
sg19
NsbsVleq
p470
g0
(g11
g2
Ntp471
Rp472
(dp473
g15
(lp474
sg17
I1
sg18
g470
sg19
NsbsVsinh
p475
g0
(g11
g2
Ntp476
Rp477
(dp478
g15
(lp479
sg17
I1
sg18
g475
sg19
NsbsVaddress
p480
g0
(g11
g2
Ntp481
Rp482
(dp483
g15
(lp484
g0
(g35
g2
Ntp485
Rp486
(dp487
g15
(lp488
sg17
I2
sg40
VSender
p489
sg19
Nsbasg17
I1
sg18
g480
sg19
NsbsVdoublerulesep
p490
g0
(g11
g2
Ntp491
Rp492
(dp493
g15
(lp494
sg17
I1
sg18
g490
sg19
NsbsVsqcap
p495
g0
(g11
g2
Ntp496
Rp497
(dp498
g15
(lp499
sg17
I1
sg18
g495
sg19
NsbsVbigskipamount
p500
g0
(g11
g2
Ntp501
Rp502
(dp503
g15
(lp504
sg17
I1
sg18
g500
sg19
NsbsVbigvee
p505
g0
(g11
g2
Ntp506
Rp507
(dp508
g15
(lp509
sg17
I1
sg18
g505
sg19
NsbsVlstinline
p510
g0
(g11
g2
Ntp511
Rp512
(dp513
g15
(lp514
sg17
I1
sg18
g510
sg19
NsbsVdisplaystyle
p515
g0
(g11
g2
Ntp516
Rp517
(dp518
g15
(lp519
sg17
I1
sg18
g515
sg19
NsbsVtau
p520
g0
(g11
g2
Ntp521
Rp522
(dp523
g15
(lp524
sg17
I1
sg18
g520
sg19
NsbsVnearrow
p525
g0
(g11
g2
Ntp526
Rp527
(dp528
g15
(lp529
sg17
I1
sg18
g525
sg19
NsbsVput
p530
g0
(g11
g2
Ntp531
Rp532
(dp533
g15
(lp534
g0
(g35
g2
Ntp535
Rp536
(dp537
g15
(lp538
sg17
I2
sg40
g237
sg19
Nsbag0
(g35
g2
Ntp539
Rp540
(dp541
g15
(lp542
sg17
I2
sg40
VObject
p543
sg19
Nsbasg17
I1
sg18
g530
sg19
NsbsVemptyset
p544
g0
(g11
g2
Ntp545
Rp546
(dp547
g15
(lp548
sg17
I1
sg18
g544
sg19
NsbsVoval
p549
g0
(g11
g2
Ntp550
Rp551
(dp552
g15
(lp553
g0
(g35
g2
Ntp554
Rp555
(dp556
g15
(lp557
sg17
I2
sg40
g237
sg19
Nsbag0
(g222
g2
Ntp558
Rp559
(dp560
g15
(lp561
sg17
I3
sg40
VSegment
p562
sg19
Nsbasg17
I1
sg18
g549
sg19
NsbsVnormalsize
p563
g0
(g11
g2
Ntp564
Rp565
(dp566
g15
(lp567
sg17
I1
sg18
g563
sg19
NsbsVunit
p568
g0
(g11
g2
Ntp569
Rp570
(dp571
g15
(lp572
g0
(g222
g2
Ntp573
Rp574
(dp575
g15
(lp576
sg17
I3
sg40
VValue
p577
sg19
Nsbag0
(g35
g2
Ntp578
Rp579
(dp580
g15
(lp581
sg17
I2
sg40
VDimension
p582
sg19
Nsbasg17
I1
sg18
g568
sg19
Vunits
p583
sbsVchi
p584
g0
(g11
g2
Ntp585
Rp586
(dp587
g15
(lp588
sg17
I1
sg18
g584
sg19
NsbsVprec
p589
g0
(g11
g2
Ntp590
Rp591
(dp592
g15
(lp593
sg17
I1
sg18
g589
sg19
NsbsVperp
p594
g0
(g11
g2
Ntp595
Rp596
(dp597
g15
(lp598
sg17
I1
sg18
g594
sg19
NsbsVimath
p599
g0
(g11
g2
Ntp600
Rp601
(dp602
g15
(lp603
sg17
I1
sg18
g599
sg19
NsbsVtoday
p604
g0
(g11
g2
Ntp605
Rp606
(dp607
g15
(lp608
sg17
I1
sg18
g604
sg19
NsbsVflat
p609
g0
(g11
g2
Ntp610
Rp611
(dp612
g15
(lp613
sg17
I1
sg18
g609
sg19
NsbsVdiamond
p614
g0
(g11
g2
Ntp615
Rp616
(dp617
g15
(lp618
sg17
I1
sg18
g614
sg19
NsbsVbigtriangleup
p619
g0
(g11
g2
Ntp620
Rp621
(dp622
g15
(lp623
sg17
I1
sg18
g619
sg19
NsbsVnewcommand
p624
g0
(g11
g2
Ntp625
Rp626
(dp627
g15
(lp628
g0
(g35
g2
Ntp629
Rp630
(dp631
g15
(lp632
sg17
I2
sg40
V\u005cName
p633
sg19
Nsbag0
(g222
g2
Ntp634
Rp635
(dp636
g15
(lp637
sg17
I3
sg40
VNumOfArguments
p638
sg19
Nsbag0
(g35
g2
Ntp639
Rp640
(dp641
g15
(lp642
sg17
I2
sg40
VDefinition
p643
sg19
Nsbasg17
I1
sg18
g624
sg19
NsbsVwidetilde
p644
g0
(g11
g2
Ntp645
Rp646
(dp647
g15
(lp648
g0
(g35
g2
Ntp649
Rp650
(dp651
g15
(lp652
sg17
I2
sg40
VText
p653
sg19
Nsbasg17
I1
sg18
g644
sg19
NsbsValeph
p654
g0
(g11
g2
Ntp655
Rp656
(dp657
g15
(lp658
sg17
I1
sg18
g654
sg19
NsbsVunitfrac
p659
g0
(g11
g2
Ntp660
Rp661
(dp662
g15
(lp663
g0
(g222
g2
Ntp664
Rp665
(dp666
g15
(lp667
sg17
I3
sg40
VValue
p668
sg19
Nsbag0
(g35
g2
Ntp669
Rp670
(dp671
g15
(lp672
sg17
I2
sg40
VNumerator
p673
sg19
Nsbag0
(g35
g2
Ntp674
Rp675
(dp676
g15
(lp677
sg17
I2
sg40
VDenominator
p678
sg19
Nsbasg17
I1
sg18
g659
sg19
Vunits
p679
sbsVupsilon
p680
g0
(g11
g2
Ntp681
Rp682
(dp683
g15
(lp684
sg17
I1
sg18
g680
sg19
NsbsVLambda
p685
g0
(g11
g2
Ntp686
Rp687
(dp688
g15
(lp689
sg17
I1
sg18
g685
sg19
NsbsVhrulefill
p690
g0
(g11
g2
Ntp691
Rp692
(dp693
g15
(lp694
sg17
I1
sg18
g690
sg19
NsbsVfbox
p695
g0
(g11
g2
Ntp696
Rp697
(dp698
g15
(lp699
g0
(g35
g2
Ntp700
Rp701
(dp702
g15
(lp703
sg17
I2
sg40
VText
p704
sg19
Nsbasg17
I1
sg18
g695
sg19
NsbsVcap
p705
g0
(g11
g2
Ntp706
Rp707
(dp708
g15
(lp709
sg17
I1
sg18
g705
sg19
NsbsVdet
p710
g0
(g11
g2
Ntp711
Rp712
(dp713
g15
(lp714
sg17
I1
sg18
g710
sg19
NsbsVsmallskip
p715
g0
(g11
g2
Ntp716
Rp717
(dp718
g15
(lp719
sg17
I1
sg18
g715
sg19
NsbsVwidehat
p720
g0
(g11
g2
Ntp721
Rp722
(dp723
g15
(lp724
g0
(g35
g2
Ntp725
Rp726
(dp727
g15
(lp728
sg17
I2
sg40
VText
p729
sg19
Nsbasg17
I1
sg18
g720
sg19
NsbsVmu
p730
g0
(g11
g2
Ntp731
Rp732
(dp733
g15
(lp734
sg17
I1
sg18
g730
sg19
NsbsVparagraph
p735
g0
(g11
g2
Ntp736
Rp737
(dp738
g15
(lp739
g0
(g222
g2
Ntp740
Rp741
(dp742
g15
(lp743
sg17
I3
sg40
VAlternative
p744
sg19
Nsbag0
(g35
g2
Ntp745
Rp746
(dp747
g15
(lp748
sg17
I2
sg40
VHeading
p749
sg19
Nsbasg17
I1
sg18
g735
sg19
NsbsVmp
p750
g0
(g11
g2
Ntp751
Rp752
(dp753
g15
(lp754
sg17
I1
sg18
g750
sg19
NsbsVcal
p755
g0
(g11
g2
Ntp756
Rp757
(dp758
g15
(lp759
sg17
I1
sg18
g755
sg19
NsbsVclosing
p760
g0
(g11
g2
Ntp761
Rp762
(dp763
g15
(lp764
g0
(g35
g2
Ntp765
Rp766
(dp767
g15
(lp768
sg17
I2
sg40
VClosing
p769
sg19
Nsbasg17
I1
sg18
g760
sg19
NsbsVdeg
p770
g0
(g11
g2
Ntp771
Rp772
(dp773
g15
(lp774
sg17
I1
sg18
g770
sg19
NsbsVwedge
p775
g0
(g11
g2
Ntp776
Rp777
(dp778
g15
(lp779
sg17
I1
sg18
g775
sg19
NsbsVtextregistered
p780
g0
(g11
g2
Ntp781
Rp782
(dp783
g15
(lp784
sg17
I1
sg18
g780
sg19
NsbsVdfrac
p785
g0
(g11
g2
Ntp786
Rp787
(dp788
g15
(lp789
g0
(g35
g2
Ntp790
Rp791
(dp792
g15
(lp793
sg17
I2
sg40
VNumerator
p794
sg19
Nsbag0
(g35
g2
Ntp795
Rp796
(dp797
g15
(lp798
sg17
I2
sg40
VDenominator
p799
sg19
Nsbasg17
I1
sg18
g785
sg19
NsbsVin
p800
g0
(g11
g2
Ntp801
Rp802
(dp803
g15
(lp804
sg17
I1
sg18
g800
sg19
NsbsVbackslash
p805
g0
(g11
g2
Ntp806
Rp807
(dp808
g15
(lp809
sg17
I1
sg18
g805
sg19
NsbsVhline
p810
g0
(g11
g2
Ntp811
Rp812
(dp813
g15
(lp814
sg17
I1
sg18
g810
sg19
NsbsVsharp
p815
g0
(g11
g2
Ntp816
Rp817
(dp818
g15
(lp819
sg17
I1
sg18
g815
sg19
NsbsVtan
p820
g0
(g11
g2
Ntp821
Rp822
(dp823
g15
(lp824
sg17
I1
sg18
g820
sg19
NsbsVhuge
p825
g0
(g11
g2
Ntp826
Rp827
(dp828
g15
(lp829
sg17
I1
sg18
g825
sg19
NsbsVaddcontentsline
p830
g0
(g11
g2
Ntp831
Rp832
(dp833
g15
(lp834
g0
(g35
g2
Ntp835
Rp836
(dp837
g15
(lp838
g0
(g153
g2
Ntp839
Rp840
(dp841
g15
(lp842
sg17
I4
sg158
Nsg159
Vtoc
p843
sg19
Nsbag0
(g153
g2
Ntp844
Rp845
(dp846
g15
(lp847
sg17
I4
sg158
Nsg159
Vlof
p848
sg19
Nsbag0
(g153
g2
Ntp849
Rp850
(dp851
g15
(lp852
sg17
I4
sg158
Nsg159
Vlot
p853
sg19
Nsbasg17
I2
sg40
VDestination
p854
sg19
Nsbag0
(g35
g2
Ntp855
Rp856
(dp857
g15
(lp858
sg17
I2
sg40
VLevel
p859
sg19
Nsbag0
(g35
g2
Ntp860
Rp861
(dp862
g15
(lp863
sg17
I2
sg40
VEntry
p864
sg19
Nsbasg17
I1
sg18
g830
sg19
NsbsVend
p865
g0
(g11
g2
Ntp866
Rp867
(dp868
g15
(lp869
g0
(g35
g2
Ntp870
Rp871
(dp872
g15
(lp873
g0
(g132
g2
Ntp874
Rp875
(dp876
g15
(lp877
sg17
I5
sg18
VOpenEnvironment
p878
sg19
Nsbasg17
I2
sg40
VEnvironment
p879
sg19
Nsbasg17
I1
sg18
g865
sg19
NsbsVgcd
p880
g0
(g11
g2
Ntp881
Rp882
(dp883
g15
(lp884
sg17
I1
sg18
g880
sg19
NsbsVhom
p885
g0
(g11
g2
Ntp886
Rp887
(dp888
g15
(lp889
sg17
I1
sg18
g885
sg19
NsbsVheartsuit
p890
g0
(g11
g2
Ntp891
Rp892
(dp893
g15
(lp894
sg17
I1
sg18
g890
sg19
NsbsVddagger
p895
g0
(g11
g2
Ntp896
Rp897
(dp898
g15
(lp899
sg17
I1
sg18
g895
sg19
NsbsVcline
p900
g0
(g11
g2
Ntp901
Rp902
(dp903
g15
(lp904
g0
(g35
g2
Ntp905
Rp906
(dp907
g15
(lp908
sg17
I2
sg40
VStart - End
p909
sg19
Nsbasg17
I1
sg18
g900
sg19
NsbsVsqsubseteq
p910
g0
(g11
g2
Ntp911
Rp912
(dp913
g15
(lp914
sg17
I1
sg18
g910
sg19
NsbsVmathsf
p915
g0
(g11
g2
Ntp916
Rp917
(dp918
g15
(lp919
g0
(g35
g2
Ntp920
Rp921
(dp922
g15
(lp923
sg17
I2
sg40
VFormula
p924
sg19
Nsbasg17
I1
sg18
g915
sg19
NsbsVrenewcommand
p925
g0
(g11
g2
Ntp926
Rp927
(dp928
g15
(lp929
g0
(g35
g2
Ntp930
Rp931
(dp932
g15
(lp933
sg17
I2
sg40
V\u005cName
p934
sg19
Nsbag0
(g222
g2
Ntp935
Rp936
(dp937
g15
(lp938
sg17
I3
sg40
VNumOfArguments
p939
sg19
Nsbag0
(g35
g2
Ntp940
Rp941
(dp942
g15
(lp943
sg17
I2
sg40
VDefinition
p944
sg19
Nsbasg17
I1
sg18
g925
sg19
NsbsVsim
p945
g0
(g11
g2
Ntp946
Rp947
(dp948
g15
(lp949
sg17
I1
sg18
g945
sg19
NsbsVfrac
p950
g0
(g11
g2
Ntp951
Rp952
(dp953
g15
(lp954
g0
(g35
g2
Ntp955
Rp956
(dp957
g15
(lp958
sg17
I2
sg40
VNumerator
p959
sg19
Nsbag0
(g35
g2
Ntp960
Rp961
(dp962
g15
(lp963
sg17
I2
sg40
VDenominator
p964
sg19
Nsbasg17
I1
sg18
g950
sg19
NsbsVaddtocounter
p965
g0
(g11
g2
Ntp966
Rp967
(dp968
g15
(lp969
g0
(g35
g2
Ntp970
Rp971
(dp972
g15
(lp973
sg17
I2
sg40
VCounter
p974
sg19
Nsbag0
(g35
g2
Ntp975
Rp976
(dp977
g15
(lp978
sg17
I2
sg40
VValue
p979
sg19
Nsbasg17
I1
sg18
g965
sg19
NsbsVmax
p980
g0
(g11
g2
Ntp981
Rp982
(dp983
g15
(lp984
sg17
I1
sg18
g980
sg19
NsbsVsucc
p985
g0
(g11
g2
Ntp986
Rp987
(dp988
g15
(lp989
sg17
I1
sg18
g985
sg19
NsbsVvdash
p990
g0
(g11
g2
Ntp991
Rp992
(dp993
g15
(lp994
sg17
I1
sg18
Vvdash
p995
sg19
NsbsVLeftrightarrow
p996
g0
(g11
g2
Ntp997
Rp998
(dp999
g15
(lp1000
sg17
I1
sg18
g996
sg19
NsbsVcolumncolor
p1001
g0
(g11
g2
Ntp1002
Rp1003
(dp1004
g15
(lp1005
g0
(g35
g2
Ntp1006
Rp1007
(dp1008
g15
(lp1009
g0
(g132
g2
Ntp1010
Rp1011
(dp1012
g15
(lp1013
sg17
I5
sg18
VColors
p1014
sg19
Nsbasg17
I2
sg40
VName
p1015
sg19
Nsbasg17
I1
sg18
g1001
sg19
Vcolortbl
p1016
sbsVparallel
p1017
g0
(g11
g2
Ntp1018
Rp1019
(dp1020
g15
(lp1021
sg17
I1
sg18
g1017
sg19
NsbsVdashbox
p1022
g0
(g11
g2
Ntp1023
Rp1024
(dp1025
g15
(lp1026
g0
(g35
g2
Ntp1027
Rp1028
(dp1029
g15
(lp1030
sg17
I2
sg40
VDashLength
p1031
sg19
Nsbag0
(g35
g2
Ntp1032
Rp1033
(dp1034
g15
(lp1035
sg17
I2
sg40
g237
sg19
Nsbag0
(g222
g2
Ntp1036
Rp1037
(dp1038
g15
(lp1039
sg17
I3
sg40
VPosition
p1040
sg19
Nsbasg17
I1
sg18
g1022
sg19
NsbsVnewtheorem
p1041
g0
(g11
g2
Ntp1042
Rp1043
(dp1044
g15
(lp1045
g0
(g35
g2
Ntp1046
Rp1047
(dp1048
g15
(lp1049
sg17
I2
sg40
VName
p1050
sg19
Nsbag0
(g222
g2
Ntp1051
Rp1052
(dp1053
g15
(lp1054
sg17
I3
sg40
VTheoremCounter
p1055
sg19
Nsbag0
(g35
g2
Ntp1056
Rp1057
(dp1058
g15
(lp1059
sg17
I2
sg40
VCaption
p1060
sg19
Nsbag0
(g222
g2
Ntp1061
Rp1062
(dp1063
g15
(lp1064
sg17
I3
sg40
VCounter
p1065
sg19
Nsbasg17
I1
sg18
g1041
sg19
NsbsVpreceq
p1066
g0
(g11
g2
Ntp1067
Rp1068
(dp1069
g15
(lp1070
sg17
I1
sg18
g1066
sg19
NsbsVleftarrow
p1071
g0
(g11
g2
Ntp1072
Rp1073
(dp1074
g15
(lp1075
sg17
I1
sg18
g1071
sg19
NsbsVuparrow
p1076
g0
(g11
g2
Ntp1077
Rp1078
(dp1079
g15
(lp1080
sg17
I1
sg18
g1076
sg19
NsbsVgamma
p1081
g0
(g11
g2
Ntp1082
Rp1083
(dp1084
g15
(lp1085
sg17
I1
sg18
g1081
sg19
NsbsVsl
p1086
g0
(g11
g2
Ntp1087
Rp1088
(dp1089
g15
(lp1090
sg17
I1
sg18
g1086
sg19
NsbsVsc
p1091
g0
(g11
g2
Ntp1092
Rp1093
(dp1094
g15
(lp1095
sg17
I1
sg18
g1091
sg19
NsbsValph
p1096
g0
(g11
g2
Ntp1097
Rp1098
(dp1099
g15
(lp1100
g0
(g35
g2
Ntp1101
Rp1102
(dp1103
g15
(lp1104
sg17
I2
sg40
VCounter
p1105
sg19
Nsbasg17
I1
sg18
g1096
sg19
NsbsVsf
p1106
g0
(g11
g2
Ntp1107
Rp1108
(dp1109
g15
(lp1110
sg17
I1
sg18
g1106
sg19
NsbsVapprox
p1111
g0
(g11
g2
Ntp1112
Rp1113
(dp1114
g15
(lp1115
sg17
I1
sg18
g1111
sg19
NsbsVtwocolumn
p1116
g0
(g11
g2
Ntp1117
Rp1118
(dp1119
g15
(lp1120
sg17
I1
sg18
g1116
sg19
NsbsVnoindent
p1121
g0
(g11
g2
Ntp1122
Rp1123
(dp1124
g15
(lp1125
sg17
I1
sg18
Vnoindent
p1126
sg19
NsbsVRe
p1127
g0
(g11
g2
Ntp1128
Rp1129
(dp1130
g15
(lp1131
sg17
I1
sg18
g1127
sg19
NsbsVincludepdf
p1132
g0
(g11
g2
Ntp1133
Rp1134
(dp1135
g15
(lp1136
g0
(g222
g2
Ntp1137
Rp1138
(dp1139
g15
(lp1140
sg17
I3
sg40
VLocalOptions
p1141
sg19
Nsbag0
(g35
g2
Ntp1142
Rp1143
(dp1144
g15
(lp1145
sg17
I2
sg40
VFilename
p1146
sg19
Nsbasg17
I1
sg18
g1132
sg19
Vpdfpages
p1147
sbsVcsc
p1148
g0
(g11
g2
Ntp1149
Rp1150
(dp1151
g15
(lp1152
sg17
I1
sg18
g1148
sg19
NsbsVoverbrace
p1153
g0
(g11
g2
Ntp1154
Rp1155
(dp1156
g15
(lp1157
g0
(g35
g2
Ntp1158
Rp1159
(dp1160
g15
(lp1161
sg17
I2
sg40
VFormula
p1162
sg19
Nsbasg17
I1
sg18
g1153
sg19
NsbsVequiv
p1163
g0
(g11
g2
Ntp1164
Rp1165
(dp1166
g15
(lp1167
sg17
I1
sg18
g1163
sg19
NsbsVbottomfraction
p1168
g0
(g11
g2
Ntp1169
Rp1170
(dp1171
g15
(lp1172
sg17
I1
sg18
g1168
sg19
NsbsVle
p1173
g0
(g11
g2
Ntp1174
Rp1175
(dp1176
g15
(lp1177
sg17
I1
sg18
g1173
sg19
NsbsVfnsymbol
p1178
g0
(g11
g2
Ntp1179
Rp1180
(dp1181
g15
(lp1182
g0
(g35
g2
Ntp1183
Rp1184
(dp1185
g15
(lp1186
sg17
I2
sg40
VCounter
p1187
sg19
Nsbasg17
I1
sg18
g1178
sg19
NsbsVll
p1188
g0
(g11
g2
Ntp1189
Rp1190
(dp1191
g15
(lp1192
sg17
I1
sg18
g1188
sg19
NsbsVfboxrule
p1193
g0
(g11
g2
Ntp1194
Rp1195
(dp1196
g15
(lp1197
sg17
I1
sg18
g1193
sg19
NsbsVmakebox
p1198
g0
(g11
g2
Ntp1199
Rp1200
(dp1201
g15
(lp1202
g0
(g222
g2
Ntp1203
Rp1204
(dp1205
g15
(lp1206
sg17
I3
sg40
VWidth
p1207
sg19
Nsbag0
(g222
g2
Ntp1208
Rp1209
(dp1210
g15
(lp1211
g0
(g153
g2
Ntp1212
Rp1213
(dp1214
g15
(lp1215
sg17
I4
sg158
Nsg159
Vl
p1216
sg19
Nsbag0
(g153
g2
Ntp1217
Rp1218
(dp1219
g15
(lp1220
sg17
I4
sg158
Nsg159
Vr
p1221
sg19
Nsbasg17
I3
sg40
VAlignment
p1222
sg19
Nsbag0
(g35
g2
Ntp1223
Rp1224
(dp1225
g15
(lp1226
sg17
I2
sg40
VText
p1227
sg19
Nsbasg17
I1
sg18
g1198
sg19
NsbsVsubparagraph
p1228
g0
(g11
g2
Ntp1229
Rp1230
(dp1231
g15
(lp1232
g0
(g222
g2
Ntp1233
Rp1234
(dp1235
g15
(lp1236
sg17
I3
sg40
VAlternative
p1237
sg19
Nsbag0
(g35
g2
Ntp1238
Rp1239
(dp1240
g15
(lp1241
sg17
I2
sg40
VHeading
p1242
sg19
Nsbasg17
I1
sg18
g1228
sg19
NsbsVlongleftarrow
p1243
g0
(g11
g2
Ntp1244
Rp1245
(dp1246
g15
(lp1247
sg17
I1
sg18
g1243
sg19
NsbsVsubsection*
p1248
g0
(g11
g2
Ntp1249
Rp1250
(dp1251
g15
(lp1252
g0
(g35
g2
Ntp1253
Rp1254
(dp1255
g15
(lp1256
sg17
I2
sg40
VHeading
p1257
sg19
Nsbasg17
I1
sg18
g1248
sg19
NsbsVsubsubsection
p1258
g0
(g11
g2
Ntp1259
Rp1260
(dp1261
g15
(lp1262
g0
(g222
g2
Ntp1263
Rp1264
(dp1265
g15
(lp1266
sg17
I3
sg40
VAlternative
p1267
sg19
Nsbag0
(g35
g2
Ntp1268
Rp1269
(dp1270
g15
(lp1271
sg17
I2
sg40
VHeading
p1272
sg19
Nsbasg17
I1
sg18
g1258
sg19
NsbsVonecolumn
p1273
g0
(g11
g2
Ntp1274
Rp1275
(dp1276
g15
(lp1277
sg17
I1
sg18
g1273
sg19
NsbsVdbinom
p1278
g0
(g11
g2
Ntp1279
Rp1280
(dp1281
g15
(lp1282
g0
(g35
g2
Ntp1283
Rp1284
(dp1285
g15
(lp1286
sg17
I2
sg40
Vn
p1287
sg19
Nsbag0
(g35
g2
Ntp1288
Rp1289
(dp1290
g15
(lp1291
sg17
I2
sg40
Vk
p1292
sg19
Nsbasg17
I1
sg18
g1278
sg19
NsbsVleftharpoondown
p1293
g0
(g11
g2
Ntp1294
Rp1295
(dp1296
g15
(lp1297
sg17
I1
sg18
g1293
sg19
NsbsVbigcup
p1298
g0
(g11
g2
Ntp1299
Rp1300
(dp1301
g15
(lp1302
sg17
I1
sg18
g1298
sg19
NsbsVhfill
p1303
g0
(g11
g2
Ntp1304
Rp1305
(dp1306
g15
(lp1307
sg17
I1
sg18
g1303
sg19
NsbsVbigwedge
p1308
g0
(g11
g2
Ntp1309
Rp1310
(dp1311
g15
(lp1312
sg17
I1
sg18
g1308
sg19
NsbsVbigoplus
p1313
g0
(g11
g2
Ntp1314
Rp1315
(dp1316
g15
(lp1317
sg17
I1
sg18
g1313
sg19
NsbsVem
p1318
g0
(g11
g2
Ntp1319
Rp1320
(dp1321
g15
(lp1322
sg17
I1
sg18
g1318
sg19
NsbsVrowcolor
p1323
g0
(g11
g2
Ntp1324
Rp1325
(dp1326
g15
(lp1327
g0
(g35
g2
Ntp1328
Rp1329
(dp1330
g15
(lp1331
g0
(g132
g2
Ntp1332
Rp1333
(dp1334
g15
(lp1335
sg17
I5
sg18
VColors
p1336
sg19
Nsbasg17
I2
sg40
VName
p1337
sg19
Nsbasg17
I1
sg18
g1323
sg19
Vcolortbl
p1338
sbsVaddvspace
p1339
g0
(g11
g2
Ntp1340
Rp1341
(dp1342
g15
(lp1343
g0
(g35
g2
Ntp1344
Rp1345
(dp1346
g15
(lp1347
sg17
I2
sg40
VValue
p1348
sg19
Nsbasg17
I1
sg18
g1339
sg19
NsbsVfboxsep
p1349
g0
(g11
g2
Ntp1350
Rp1351
(dp1352
g15
(lp1353
sg17
I1
sg18
g1349
sg19
NsbsVrowcolors
p1354
g0
(g11
g2
Ntp1355
Rp1356
(dp1357
g15
(lp1358
g0
(g222
g2
Ntp1359
Rp1360
(dp1361
g15
(lp1362
sg17
I3
sg40
VCommands
p1363
sg19
Nsbag0
(g35
g2
Ntp1364
Rp1365
(dp1366
g15
(lp1367
sg17
I2
sg40
VNum
p1368
sg19
Nsbag0
(g35
g2
Ntp1369
Rp1370
(dp1371
g15
(lp1372
g0
(g132
g2
Ntp1373
Rp1374
(dp1375
g15
(lp1376
sg17
I5
sg18
VColors
p1377
sg19
Nsbasg17
I2
sg40
VOddRowColor
p1378
sg19
Nsbag0
(g35
g2
Ntp1379
Rp1380
(dp1381
g15
(lp1382
g0
(g132
g2
Ntp1383
Rp1384
(dp1385
g15
(lp1386
sg17
I5
sg18
VColors
p1387
sg19
Nsbasg17
I2
sg40
VEvenRowColor
p1388
sg19
Nsbasg17
I1
sg18
g1354
sg19
Vxcolor
p1389
sbsVuplus
p1390
g0
(g11
g2
Ntp1391
Rp1392
(dp1393
g15
(lp1394
sg17
I1
sg18
g1390
sg19
NsbsVsubparagraph*
p1395
g0
(g11
g2
Ntp1396
Rp1397
(dp1398
g15
(lp1399
g0
(g35
g2
Ntp1400
Rp1401
(dp1402
g15
(lp1403
sg17
I2
sg40
VHeading
p1404
sg19
Nsbasg17
I1
sg18
g1395
sg19
NsbsVrm
p1405
g0
(g11
g2
Ntp1406
Rp1407
(dp1408
g15
(lp1409
sg17
I1
sg18
g1405
sg19
NsbsVcenterline
p1410
g0
(g11
g2
Ntp1411
Rp1412
(dp1413
g15
(lp1414
g0
(g35
g2
Ntp1415
Rp1416
(dp1417
g15
(lp1418
sg17
I2
sg40
VLineOfText
p1419
sg19
Nsbasg17
I1
sg18
g1410
sg19
NsbsVref
p1420
g0
(g11
g2
Ntp1421
Rp1422
(dp1423
g15
(lp1424
g0
(g35
g2
Ntp1425
Rp1426
(dp1427
g15
(lp1428
g0
(g132
g2
Ntp1429
Rp1430
(dp1431
g15
(lp1432
sg17
I5
sg18
VLabels
p1433
sg19
Nsbasg17
I2
sg40
VName
p1434
sg19
Nsbasg17
I1
sg18
g1420
sg19
NsbsVsimeq
p1435
g0
(g11
g2
Ntp1436
Rp1437
(dp1438
g15
(lp1439
sg17
I1
sg18
g1435
sg19
NsbsVJoin
p1440
g0
(g11
g2
Ntp1441
Rp1442
(dp1443
g15
(lp1444
sg17
I1
sg18
g1440
sg19
NsbsVast
p1445
g0
(g11
g2
Ntp1446
Rp1447
(dp1448
g15
(lp1449
sg17
I1
sg18
g1445
sg19
NsbsVtextcopyright
p1450
g0
(g11
g2
Ntp1451
Rp1452
(dp1453
g15
(lp1454
sg17
I1
sg18
g1450
sg19
NsbsVtextit
p1455
g0
(g11
g2
Ntp1456
Rp1457
(dp1458
g15
(lp1459
g0
(g35
g2
Ntp1460
Rp1461
(dp1462
g15
(lp1463
sg17
I2
sg40
VText
p1464
sg19
Nsbasg17
I1
sg18
g1455
sg19
NsbsVSigma
p1465
g0
(g11
g2
Ntp1466
Rp1467
(dp1468
g15
(lp1469
sg17
I1
sg18
g1465
sg19
NsbsVbiguplus
p1470
g0
(g11
g2
Ntp1471
Rp1472
(dp1473
g15
(lp1474
sg17
I1
sg18
g1470
sg19
NsbsVindent
p1475
g0
(g11
g2
Ntp1476
Rp1477
(dp1478
g15
(lp1479
sg17
I1
sg18
Vindent
p1480
sg19
NsbsVpageref
p1481
g0
(g11
g2
Ntp1482
Rp1483
(dp1484
g15
(lp1485
g0
(g35
g2
Ntp1486
Rp1487
(dp1488
g15
(lp1489
g0
(g132
g2
Ntp1490
Rp1491
(dp1492
g15
(lp1493
sg17
I5
sg18
VLabels
p1494
sg19
Nsbasg17
I2
sg40
VName
p1495
sg19
Nsbasg17
I1
sg18
g1481
sg19
NsbsVtimes
p1496
g0
(g11
g2
Ntp1497
Rp1498
(dp1499
g15
(lp1500
sg17
I1
sg18
g1496
sg19
NsbsVcaption
p1501
g0
(g11
g2
Ntp1502
Rp1503
(dp1504
g15
(lp1505
g0
(g222
g2
Ntp1506
Rp1507
(dp1508
g15
(lp1509
sg17
I3
sg40
VShort
p1510
sg19
Nsbag0
(g35
g2
Ntp1511
Rp1512
(dp1513
g15
(lp1514
sg17
I2
sg40
VDescription
p1515
sg19
Nsbasg17
I1
sg18
g1501
sg19
NsbsVeqref
p1516
g0
(g11
g2
Ntp1517
Rp1518
(dp1519
g15
(lp1520
g0
(g35
g2
Ntp1521
Rp1522
(dp1523
g15
(lp1524
g0
(g132
g2
Ntp1525
Rp1526
(dp1527
g15
(lp1528
sg17
I5
sg18
VLabels
p1529
sg19
Nsbasg17
I2
sg40
VName
p1530
sg19
Nsbasg17
I1
sg18
g1516
sg19
NsbsVarccos
p1531
g0
(g11
g2
Ntp1532
Rp1533
(dp1534
g15
(lp1535
sg17
I1
sg18
g1531
sg19
NsbsVextracolsep
p1536
g0
(g11
g2
Ntp1537
Rp1538
(dp1539
g15
(lp1540
g0
(g35
g2
Ntp1541
Rp1542
(dp1543
g15
(lp1544
sg17
I2
sg40
VValue
p1545
sg19
Nsbasg17
I1
sg18
g1536
sg19
NsbsVlambda
p1546
g0
(g11
g2
Ntp1547
Rp1548
(dp1549
g15
(lp1550
sg17
I1
sg18
g1546
sg19
NsbsVmathbb
p1551
g0
(g11
g2
Ntp1552
Rp1553
(dp1554
g15
(lp1555
g0
(g35
g2
Ntp1556
Rp1557
(dp1558
g15
(lp1559
sg17
I2
sg40
VFormula
p1560
sg19
Nsbasg17
I1
sg18
g1551
sg19
Vamssymb
p1561
sbsVHuge
p1562
g0
(g11
g2
Ntp1563
Rp1564
(dp1565
g15
(lp1566
sg17
I1
sg18
g1562
sg19
NsbsVxi
p1567
g0
(g11
g2
Ntp1568
Rp1569
(dp1570
g15
(lp1571
sg17
I1
sg18
g1567
sg19
NsbsVspadesuit
p1572
g0
(g11
g2
Ntp1573
Rp1574
(dp1575
g15
(lp1576
sg17
I1
sg18
g1572
sg19
NsbsVpagenumbering
p1577
g0
(g11
g2
Ntp1578
Rp1579
(dp1580
g15
(lp1581
g0
(g35
g2
Ntp1582
Rp1583
(dp1584
g15
(lp1585
g0
(g153
g2
Ntp1586
Rp1587
(dp1588
g15
(lp1589
sg17
I4
sg158
Nsg159
VAlph
p1590
sg19
Nsbag0
(g153
g2
Ntp1591
Rp1592
(dp1593
g15
(lp1594
sg17
I4
sg158
Nsg159
Valph
p1595
sg19
Nsbag0
(g153
g2
Ntp1596
Rp1597
(dp1598
g15
(lp1599
sg17
I4
sg158
Nsg159
Varabic
p1600
sg19
Nsbag0
(g153
g2
Ntp1601
Rp1602
(dp1603
g15
(lp1604
sg17
I4
sg158
Nsg159
VRoman
p1605
sg19
Nsbag0
(g153
g2
Ntp1606
Rp1607
(dp1608
g15
(lp1609
sg17
I4
sg158
Nsg159
Vroman
p1610
sg19
Nsbasg17
I2
sg40
VType
p1611
sg19
Nsbasg17
I1
sg18
g1577
sg19
NsbsVdate
p1612
g0
(g11
g2
Ntp1613
Rp1614
(dp1615
g15
(lp1616
g0
(g35
g2
Ntp1617
Rp1618
(dp1619
g15
(lp1620
sg17
I2
sg40
VDate
p1621
sg19
Nsbasg17
I1
sg18
g1612
sg19
NsbsVclubsuit
p1622
g0
(g11
g2
Ntp1623
Rp1624
(dp1625
g15
(lp1626
sg17
I1
sg18
g1622
sg19
NsbsVbigsqcup
p1627
g0
(g11
g2
Ntp1628
Rp1629
(dp1630
g15
(lp1631
sg17
I1
sg18
g1627
sg19
NsbsVDiamond
p1632
g0
(g11
g2
Ntp1633
Rp1634
(dp1635
g15
(lp1636
sg17
I1
sg18
VDiamond
p1637
sg19
NsbsVflushbottom
p1638
g0
(g11
g2
Ntp1639
Rp1640
(dp1641
g15
(lp1642
sg17
I1
sg18
g1638
sg19
NsbsVaddtolength
p1643
g0
(g11
g2
Ntp1644
Rp1645
(dp1646
g15
(lp1647
g0
(g35
g2
Ntp1648
Rp1649
(dp1650
g15
(lp1651
sg17
I2
sg40
VLengthCommand
p1652
sg19
Nsbag0
(g35
g2
Ntp1653
Rp1654
(dp1655
g15
(lp1656
sg17
I2
sg40
VValue
p1657
sg19
Nsbasg17
I1
sg18
g1643
sg19
NsbsVLongleftrightarrow
p1658
g0
(g11
g2
Ntp1659
Rp1660
(dp1661
g15
(lp1662
sg17
I1
sg18
g1658
sg19
NsbsVtop
p1663
g0
(g11
g2
Ntp1664
Rp1665
(dp1666
g15
(lp1667
sg17
I1
sg18
g1663
sg19
NsbsVDelta
p1668
g0
(g11
g2
Ntp1669
Rp1670
(dp1671
g15
(lp1672
sg17
I1
sg18
g1668
sg19
NsbsViota
p1673
g0
(g11
g2
Ntp1674
Rp1675
(dp1676
g15
(lp1677
sg17
I1
sg18
g1673
sg19
NsbsVusepackage
p1678
g0
(g11
g2
Ntp1679
Rp1680
(dp1681
g15
(lp1682
g0
(g222
g2
Ntp1683
Rp1684
(dp1685
g15
(lp1686
sg17
I3
sg40
VOptions
p1687
sg19
Nsbag0
(g35
g2
Ntp1688
Rp1689
(dp1690
g15
(lp1691
g0
(g153
g2
Ntp1692
Rp1693
(dp1694
g15
(lp1695
sg17
I4
sg158
Nsg159
Vbabel
p1696
sg19
Nsbag0
(g153
g2
Ntp1697
Rp1698
(dp1699
g15
(lp1700
sg17
I4
sg158
Nsg159
Vurl
p1701
sg19
Nsbag0
(g153
g2
Ntp1702
Rp1703
(dp1704
g15
(lp1705
sg17
I4
sg158
Nsg159
Vcolor
p1706
sg19
Nsbag0
(g153
g2
Ntp1707
Rp1708
(dp1709
g15
(lp1710
sg17
I4
sg158
Nsg159
Vlistings
p1711
sg19
Nsbag0
(g153
g2
Ntp1712
Rp1713
(dp1714
g15
(lp1715
sg17
I4
sg158
Nsg159
Vinputenc
p1716
sg19
Nsbag0
(g153
g2
Ntp1717
Rp1718
(dp1719
g15
(lp1720
sg17
I4
sg158
Nsg159
Vgraphicx
p1721
sg19
Nsbag0
(g153
g2
Ntp1722
Rp1723
(dp1724
g15
(lp1725
sg17
I4
sg158
Nsg159
Vgraphics
p1726
sg19
Nsbasg17
I2
sg40
VPackage
p1727
sg19
Nsbasg17
I1
sg18
g1678
sg19
NsbsVevensidemargin
p1728
g0
(g11
g2
Ntp1729
Rp1730
(dp1731
g15
(lp1732
sg17
I1
sg18
g1728
sg19
NsbsVsupset
p1733
g0
(g11
g2
Ntp1734
Rp1735
(dp1736
g15
(lp1737
sg17
I1
sg18
g1733
sg19
NsbsVtriangleleft
p1738
g0
(g11
g2
Ntp1739
Rp1740
(dp1741
g15
(lp1742
sg17
I1
sg18
g1738
sg19
NsbsVpart
p1743
g0
(g11
g2
Ntp1744
Rp1745
(dp1746
g15
(lp1747
g0
(g222
g2
Ntp1748
Rp1749
(dp1750
g15
(lp1751
sg17
I3
sg40
VAlternative
p1752
sg19
Nsbag0
(g35
g2
Ntp1753
Rp1754
(dp1755
g15
(lp1756
sg17
I2
sg40
VHeading
p1757
sg19
Nsbasg17
I1
sg18
g1743
sg19
NsbsVbelowdisplayskip
p1758
g0
(g11
g2
Ntp1759
Rp1760
(dp1761
g15
(lp1762
sg17
I1
sg18
g1758
sg19
NsbsVnatural
p1763
g0
(g11
g2
Ntp1764
Rp1765
(dp1766
g15
(lp1767
sg17
I1
sg18
g1763
sg19
NsbsVbinom
p1768
g0
(g11
g2
Ntp1769
Rp1770
(dp1771
g15
(lp1772
g0
(g35
g2
Ntp1773
Rp1774
(dp1775
g15
(lp1776
sg17
I2
sg40
Vn
p1777
sg19
Nsbag0
(g35
g2
Ntp1778
Rp1779
(dp1780
g15
(lp1781
sg17
I2
sg40
Vk
p1782
sg19
Nsbasg17
I1
sg18
g1768
sg19
NsbsVdiscretionary
p1783
g0
(g11
g2
Ntp1784
Rp1785
(dp1786
g15
(lp1787
g0
(g35
g2
Ntp1788
Rp1789
(dp1790
g15
(lp1791
sg17
I2
sg40
VStart
p1792
sg19
Nsbag0
(g35
g2
Ntp1793
Rp1794
(dp1795
g15
(lp1796
sg17
I2
sg40
VEnd
p1797
sg19
Nsbag0
(g35
g2
Ntp1798
Rp1799
(dp1800
g15
(lp1801
sg17
I2
sg40
VPhrase
p1802
sg19
Nsbasg17
I1
sg18
g1783
sg19
NsbsVXi
p1803
g0
(g11
g2
Ntp1804
Rp1805
(dp1806
g15
(lp1807
sg17
I1
sg18
g1803
sg19
NsbsVcite
p1808
g0
(g11
g2
Ntp1809
Rp1810
(dp1811
g15
(lp1812
g0
(g35
g2
Ntp1813
Rp1814
(dp1815
g15
(lp1816
g0
(g132
g2
Ntp1817
Rp1818
(dp1819
g15
(lp1820
sg17
I5
sg18
VBibitems
p1821
sg19
Nsbasg17
I2
sg40
VKey
p1822
sg19
Nsbasg17
I1
sg18
g1808
sg19
NsbsVZeta
p1823
g0
(g11
g2
Ntp1824
Rp1825
(dp1826
g15
(lp1827
sg17
I1
sg18
g1823
sg19
NsbsVmathtt
p1828
g0
(g11
g2
Ntp1829
Rp1830
(dp1831
g15
(lp1832
g0
(g35
g2
Ntp1833
Rp1834
(dp1835
g15
(lp1836
sg17
I2
sg40
VFormula
p1837
sg19
Nsbasg17
I1
sg18
g1828
sg19
NsbsVldots
p1838
g0
(g11
g2
Ntp1839
Rp1840
(dp1841
g15
(lp1842
sg17
I1
sg18
g1838
sg19
NsbsVand
p1843
g0
(g11
g2
Ntp1844
Rp1845
(dp1846
g15
(lp1847
sg17
I1
sg18
g1843
sg19
NsbsVfootnote
p1848
g0
(g11
g2
Ntp1849
Rp1850
(dp1851
g15
(lp1852
g0
(g222
g2
Ntp1853
Rp1854
(dp1855
g15
(lp1856
sg17
I3
sg40
VNumber
p1857
sg19
Nsbasg17
I1
sg18
Vfootnote
p1858
sg19
NsbsVsettowidth
p1859
g0
(g11
g2
Ntp1860
Rp1861
(dp1862
g15
(lp1863
g0
(g35
g2
Ntp1864
Rp1865
(dp1866
g15
(lp1867
sg17
I2
sg40
VLengthCommand
p1868
sg19
Nsbag0
(g35
g2
Ntp1869
Rp1870
(dp1871
g15
(lp1872
sg17
I2
sg40
VText
p1873
sg19
Nsbasg17
I1
sg18
g1859
sg19
NsbsVPhi
p1874
g0
(g11
g2
Ntp1875
Rp1876
(dp1877
g15
(lp1878
sg17
I1
sg18
g1874
sg19
NsbsVangle
p1879
g0
(g11
g2
Ntp1880
Rp1881
(dp1882
g15
(lp1883
sg17
I1
sg18
g1879
sg19
NsbsVcolumnseprule
p1884
g0
(g11
g2
Ntp1885
Rp1886
(dp1887
g15
(lp1888
sg17
I1
sg18
g1884
sg19
NsbsVmin
p1889
g0
(g11
g2
Ntp1890
Rp1891
(dp1892
g15
(lp1893
sg17
I1
sg18
g1889
sg19
NsbsVhspace
p1894
g0
(g11
g2
Ntp1895
Rp1896
(dp1897
g15
(lp1898
g0
(g35
g2
Ntp1899
Rp1900
(dp1901
g15
(lp1902
sg17
I2
sg40
VWidth
p1903
sg19
Nsbasg17
I1
sg18
g1894
sg19
NsbsVmid
p1904
g0
(g11
g2
Ntp1905
Rp1906
(dp1907
g15
(lp1908
sg17
I1
sg18
g1904
sg19
NsbsVAlpha
p1909
g0
(g11
g2
Ntp1910
Rp1911
(dp1912
g15
(lp1913
sg17
I1
sg18
g1909
sg19
NsbsVOmega
p1914
g0
(g11
g2
Ntp1915
Rp1916
(dp1917
g15
(lp1918
sg17
I1
sg18
g1914
sg19
NsbsVupdownarrow
p1919
g0
(g11
g2
Ntp1920
Rp1921
(dp1922
g15
(lp1923
sg17
I1
sg18
g1919
sg19
NsbsVbegin
p1924
g0
(g11
g2
Ntp1925
Rp1926
(dp1927
g15
(lp1928
g0
(g35
g2
Ntp1929
Rp1930
(dp1931
g15
(lp1932
g0
(g153
g2
Ntp1933
Rp1934
(dp1935
g15
(lp1936
sg17
I4
sg158
Nsg159
Vabstract
p1937
sg19
Nsbag0
(g153
g2
Ntp1938
Rp1939
(dp1940
g15
(lp1941
sg17
I4
sg158
Nsg159
Vappendix
p1942
sg19
Nsbag0
(g153
g2
Ntp1943
Rp1944
(dp1945
g15
(lp1946
sg17
I4
sg158
Nsg159
Varray
p1947
sg19
Nsbag0
(g153
g2
Ntp1948
Rp1949
(dp1950
g15
(lp1951
sg17
I4
sg158
Nsg159
Valign
p1952
sg19
Vamsmath
p1953
sbag0
(g153
g2
Ntp1954
Rp1955
(dp1956
g15
(lp1957
sg17
I4
sg158
Nsg159
Valign*
p1958
sg19
Vamsmath
p1959
sbag0
(g153
g2
Ntp1960
Rp1961
(dp1962
g15
(lp1963
sg17
I4
sg158
Nsg159
VBmatrix
p1964
sg19
Vamsmath
p1965
sbag0
(g153
g2
Ntp1966
Rp1967
(dp1968
g15
(lp1969
sg17
I4
sg158
Nsg159
Vbmatrix
p1970
sg19
Vamsmath
p1971
sbag0
(g153
g2
Ntp1972
Rp1973
(dp1974
g15
(lp1975
sg17
I4
sg158
Nsg159
Vcases
p1976
sg19
Vamsmath
p1977
sbag0
(g153
g2
Ntp1978
Rp1979
(dp1980
g15
(lp1981
sg17
I4
sg158
Nsg159
Vcenter
p1982
sg19
Nsbag0
(g153
g2
Ntp1983
Rp1984
(dp1985
g15
(lp1986
sg17
I4
sg158
Nsg159
Vdocument
p1987
sg19
Nsbag0
(g153
g2
Ntp1988
Rp1989
(dp1990
g15
(lp1991
sg17
I4
sg158
Nsg159
Vdescription
p1992
sg19
Nsbag0
(g153
g2
Ntp1993
Rp1994
(dp1995
g15
(lp1996
sg17
I4
sg158
Nsg159
Vdisplaymath
p1997
sg19
Nsbag0
(g153
g2
Ntp1998
Rp1999
(dp2000
g15
(lp2001
sg17
I4
sg158
Nsg159
Venumerate
p2002
sg19
Nsbag0
(g153
g2
Ntp2003
Rp2004
(dp2005
g15
(lp2006
sg17
I4
sg158
Nsg159
Veqnarray
p2007
sg19
Nsbag0
(g153
g2
Ntp2008
Rp2009
(dp2010
g15
(lp2011
sg17
I4
sg158
Nsg159
Veqnarray*
p2012
sg19
Nsbag0
(g153
g2
Ntp2013
Rp2014
(dp2015
g15
(lp2016
sg17
I4
sg158
Nsg159
Vequation
p2017
sg19
Nsbag0
(g153
g2
Ntp2018
Rp2019
(dp2020
g15
(lp2021
sg17
I4
sg158
Nsg159
Vfigure
p2022
sg19
Nsbag0
(g153
g2
Ntp2023
Rp2024
(dp2025
g15
(lp2026
sg17
I4
sg158
Nsg159
Vfigure*
p2027
sg19
Nsbag0
(g153
g2
Ntp2028
Rp2029
(dp2030
g15
(lp2031
sg17
I4
sg158
Nsg159
Vflushleft
p2032
sg19
Nsbag0
(g153
g2
Ntp2033
Rp2034
(dp2035
g15
(lp2036
sg17
I4
sg158
Nsg159
Vflushright
p2037
sg19
Nsbag0
(g153
g2
Ntp2038
Rp2039
(dp2040
g15
(lp2041
sg17
I4
sg158
Nsg159
Vfussypar
p2042
sg19
Nsbag0
(g153
g2
Ntp2043
Rp2044
(dp2045
g15
(lp2046
sg17
I4
sg158
Nsg159
Vitemize
p2047
sg19
Nsbag0
(g153
g2
Ntp2048
Rp2049
(dp2050
g15
(lp2051
sg17
I4
sg158
Nsg159
Vletter
p2052
sg19
Nsbag0
(g153
g2
Ntp2053
Rp2054
(dp2055
g15
(lp2056
sg17
I4
sg158
Nsg159
Vlstlisting
p2057
sg19
Vlistings
p2058
sbag0
(g153
g2
Ntp2059
Rp2060
(dp2061
g15
(lp2062
sg17
I4
sg158
Nsg159
Vmath
p2063
sg19
Nsbag0
(g153
g2
Ntp2064
Rp2065
(dp2066
g15
(lp2067
sg17
I4
sg158
Nsg159
Vmatrix
p2068
sg19
Vamsmath
p2069
sbag0
(g153
g2
Ntp2070
Rp2071
(dp2072
g15
(lp2073
sg17
I4
sg158
Nsg159
Vmulticols
p2074
sg19
Vmulticol
p2075
sbag0
(g153
g2
Ntp2076
Rp2077
(dp2078
g15
(lp2079
sg17
I4
sg158
Nsg159
Vpicture
p2080
sg19
Nsbag0
(g153
g2
Ntp2081
Rp2082
(dp2083
g15
(lp2084
sg17
I4
sg158
Nsg159
Vpmatrix
p2085
sg19
Vamsmath
p2086
sbag0
(g153
g2
Ntp2087
Rp2088
(dp2089
g15
(lp2090
sg17
I4
sg158
Nsg159
Vsmallmatrix
p2091
sg19
Vamsmath
p2092
sbag0
(g153
g2
Ntp2093
Rp2094
(dp2095
g15
(lp2096
sg17
I4
sg158
Nsg159
Vsubarray
p2097
sg19
Vamsmath
p2098
sbag0
(g153
g2
Ntp2099
Rp2100
(dp2101
g15
(lp2102
sg17
I4
sg158
Nsg159
Vsubequations
p2103
sg19
Vamsmath
p2104
sbag0
(g153
g2
Ntp2105
Rp2106
(dp2107
g15
(lp2108
sg17
I4
sg158
Nsg159
Vtable
p2109
sg19
Nsbag0
(g153
g2
Ntp2110
Rp2111
(dp2112
g15
(lp2113
sg17
I4
sg158
Nsg159
Vtabular
p2114
sg19
Nsbag0
(g153
g2
Ntp2115
Rp2116
(dp2117
g15
(lp2118
sg17
I4
sg158
Nsg159
Vtitlepage
p2119
sg19
Nsbag0
(g153
g2
Ntp2120
Rp2121
(dp2122
g15
(lp2123
sg17
I4
sg158
Nsg159
Vtheorem
p2124
sg19
Nsbag0
(g153
g2
Ntp2125
Rp2126
(dp2127
g15
(lp2128
sg17
I4
sg158
Nsg159
Vthebibliography
p2129
sg19
Nsbag0
(g153
g2
Ntp2130
Rp2131
(dp2132
g15
(lp2133
sg17
I4
sg158
Nsg159
Vverbatim
p2134
sg19
Nsbag0
(g153
g2
Ntp2135
Rp2136
(dp2137
g15
(lp2138
sg17
I4
sg158
Nsg159
VVmatrix
p2139
sg19
Vamsmath
p2140
sbag0
(g153
g2
Ntp2141
Rp2142
(dp2143
g15
(lp2144
sg17
I4
sg158
Nsg159
Vvmatrix
p2145
sg19
Vamsmath
p2146
sbag0
(g153
g2
Ntp2147
Rp2148
(dp2149
g15
(lp2150
sg17
I4
sg158
Nsg159
VHuge
p2151
sg19
Nsbag0
(g153
g2
Ntp2152
Rp2153
(dp2154
g15
(lp2155
sg17
I4
sg158
Nsg159
Vhuge
p2156
sg19
Nsbag0
(g153
g2
Ntp2157
Rp2158
(dp2159
g15
(lp2160
sg17
I4
sg158
Nsg159
Vlarge
p2161
sg19
Nsbag0
(g153
g2
Ntp2162
Rp2163
(dp2164
g15
(lp2165
sg17
I4
sg158
Nsg159
VLarge
p2166
sg19
Nsbag0
(g153
g2
Ntp2167
Rp2168
(dp2169
g15
(lp2170
sg17
I4
sg158
Nsg159
VLARGE
p2171
sg19
Nsbag0
(g153
g2
Ntp2172
Rp2173
(dp2174
g15
(lp2175
sg17
I4
sg158
Nsg159
Vtiny
p2176
sg19
Nsbag0
(g153
g2
Ntp2177
Rp2178
(dp2179
g15
(lp2180
sg17
I4
sg158
Nsg159
Vfootnotesize
p2181
sg19
Nsbag0
(g153
g2
Ntp2182
Rp2183
(dp2184
g15
(lp2185
sg17
I4
sg158
Nsg159
Vscriptsize
p2186
sg19
Nsbag0
(g153
g2
Ntp2187
Rp2188
(dp2189
g15
(lp2190
sg17
I4
sg158
Nsg159
Vsmall
p2191
sg19
Nsbag0
(g153
g2
Ntp2192
Rp2193
(dp2194
g15
(lp2195
sg17
I4
sg158
Nsg159
Vnormalsize
p2196
sg19
Nsbag0
(g132
g2
Ntp2197
Rp2198
(dp2199
g15
(lp2200
sg17
I5
sg18
VNewenvironments
p2201
sg19
Nsbasg17
I2
sg40
VEnvironment
p2202
sg19
Nsbasg17
I1
sg18
g1924
sg19
NsbsVnewline
p2203
g0
(g11
g2
Ntp2204
Rp2205
(dp2206
g15
(lp2207
sg17
I1
sg18
g2203
sg19
NsbsVbeta
p2208
g0
(g11
g2
Ntp2209
Rp2210
(dp2211
g15
(lp2212
sg17
I1
sg18
g2208
sg19
NsbsVrho
p2213
g0
(g11
g2
Ntp2214
Rp2215
(dp2216
g15
(lp2217
sg17
I1
sg18
g2213
sg19
NsbsValpha
p2218
g0
(g11
g2
Ntp2219
Rp2220
(dp2221
g15
(lp2222
sg17
I1
sg18
g2218
sg19
NsbsVgrave
p2223
g0
(g11
g2
Ntp2224
Rp2225
(dp2226
g15
(lp2227
g0
(g35
g2
Ntp2228
Rp2229
(dp2230
g15
(lp2231
sg17
I2
sg40
VText
p2232
sg19
Nsbasg17
I1
sg18
g2223
sg19
NsbsVunderset
p2233
g0
(g11
g2
Ntp2234
Rp2235
(dp2236
g15
(lp2237
g0
(g35
g2
Ntp2238
Rp2239
(dp2240
g15
(lp2241
sg17
I2
sg40
VUnder
p2242
sg19
Nsbag0
(g35
g2
Ntp2243
Rp2244
(dp2245
g15
(lp2246
sg17
I2
sg40
VFormula
p2247
sg19
Nsbasg17
I1
sg18
g2233
sg19
Vamsmath
p2248
sbsVbelowdisplayshortskip
p2249
g0
(g11
g2
Ntp2250
Rp2251
(dp2252
g15
(lp2253
sg17
I1
sg18
g2249
sg19
NsbsVexp
p2254
g0
(g11
g2
Ntp2255
Rp2256
(dp2257
g15
(lp2258
sg17
I1
sg18
g2254
sg19
NsbsVsigma
p2259
g0
(g11
g2
Ntp2260
Rp2261
(dp2262
g15
(lp2263
sg17
I1
sg18
g2259
sg19
NsbsVsum
p2264
g0
(g11
g2
Ntp2265
Rp2266
(dp2267
g15
(lp2268
sg17
I1
sg18
g2264
sg19
NsbsVmathfrak
p2269
g0
(g11
g2
Ntp2270
Rp2271
(dp2272
g15
(lp2273
g0
(g35
g2
Ntp2274
Rp2275
(dp2276
g15
(lp2277
sg17
I2
sg40
VFormula
p2278
sg19
Nsbasg17
I1
sg18
g2269
sg19
NsbsVfussy
p2279
g0
(g11
g2
Ntp2280
Rp2281
(dp2282
g15
(lp2283
sg17
I1
sg18
g2279
sg19
NsbsVincludeonly
p2284
g0
(g11
g2
Ntp2285
Rp2286
(dp2287
g15
(lp2288
g0
(g35
g2
Ntp2289
Rp2290
(dp2291
g15
(lp2292
sg17
I2
sg40
VFiles
p2293
sg19
Nsbasg17
I1
sg18
g2284
sg19
NsbsVtext
p2294
g0
(g11
g2
Ntp2295
Rp2296
(dp2297
g15
(lp2298
g0
(g35
g2
Ntp2299
Rp2300
(dp2301
g15
(lp2302
sg17
I2
sg40
VText
p2303
sg19
Nsbasg17
I1
sg18
g2294
sg19
Vamsmath
p2304
sbsVPsi
p2305
g0
(g11
g2
Ntp2306
Rp2307
(dp2308
g15
(lp2309
sg17
I1
sg18
g2305
sg19
NsbsVtitle
p2310
g0
(g11
g2
Ntp2311
Rp2312
(dp2313
g15
(lp2314
g0
(g35
g2
Ntp2315
Rp2316
(dp2317
g15
(lp2318
sg17
I2
sg40
VTitle
p2319
sg19
Nsbasg17
I1
sg18
g2310
sg19
NsbsVEpsilon
p2320
g0
(g11
g2
Ntp2321
Rp2322
(dp2323
g15
(lp2324
sg17
I1
sg18
g2320
sg19
NsbsVsmallskipamount
p2325
g0
(g11
g2
Ntp2326
Rp2327
(dp2328
g15
(lp2329
sg17
I1
sg18
g2325
sg19
NsbsVparindent
p2330
g0
(g11
g2
Ntp2331
Rp2332
(dp2333
g15
(lp2334
sg17
I1
sg18
g2330
sg19
NsbsVsubsection
p2335
g0
(g11
g2
Ntp2336
Rp2337
(dp2338
g15
(lp2339
g0
(g222
g2
Ntp2340
Rp2341
(dp2342
g15
(lp2343
sg17
I3
sg40
VAlternative
p2344
sg19
Nsbag0
(g35
g2
Ntp2345
Rp2346
(dp2347
g15
(lp2348
sg17
I2
sg40
VHeading
p2349
sg19
Nsbasg17
I1
sg18
g2335
sg19
NsbsVtriangleright
p2350
g0
(g11
g2
Ntp2351
Rp2352
(dp2353
g15
(lp2354
sg17
I1
sg18
g2350
sg19
NsbsVcircle
p2355
g0
(g11
g2
Ntp2356
Rp2357
(dp2358
g15
(lp2359
g0
(g35
g2
Ntp2360
Rp2361
(dp2362
g15
(lp2363
sg17
I2
sg40
VDiameter
p2364
sg19
Nsbasg17
I1
sg18
g2355
sg19
NsbsVinfty
p2365
g0
(g11
g2
Ntp2366
Rp2367
(dp2368
g15
(lp2369
sg17
I1
sg18
g2365
sg19
NsbsVgeq
p2370
g0
(g11
g2
Ntp2371
Rp2372
(dp2373
g15
(lp2374
sg17
I1
sg18
g2370
sg19
NsbsVtriangle
p2375
g0
(g11
g2
Ntp2376
Rp2377
(dp2378
g15
(lp2379
sg17
I1
sg18
g2375
sg19
NsbsVxdefinecolor
p2380
g0
(g11
g2
Ntp2381
Rp2382
(dp2383
g15
(lp2384
g0
(g35
g2
Ntp2385
Rp2386
(dp2387
g15
(lp2388
sg17
I2
sg40
VName
p2389
sg19
Nsbag0
(g35
g2
Ntp2390
Rp2391
(dp2392
g15
(lp2393
g0
(g153
g2
Ntp2394
Rp2395
(dp2396
g15
(lp2397
sg17
I4
sg158
Nsg159
Vgray
p2398
sg19
Nsbag0
(g153
g2
Ntp2399
Rp2400
(dp2401
g15
(lp2402
sg17
I4
sg158
Nsg159
Vrgb
p2403
sg19
Nsbag0
(g153
g2
Ntp2404
Rp2405
(dp2406
g15
(lp2407
sg17
I4
sg158
Nsg159
Vcmy
p2408
sg19
Nsbag0
(g153
g2
Ntp2409
Rp2410
(dp2411
g15
(lp2412
sg17
I4
sg158
Nsg159
Vcmyk
p2413
sg19
Nsbag0
(g153
g2
Ntp2414
Rp2415
(dp2416
g15
(lp2417
sg17
I4
sg158
Nsg159
VGray
p2418
sg19
Nsbag0
(g153
g2
Ntp2419
Rp2420
(dp2421
g15
(lp2422
sg17
I4
sg158
Nsg159
VRGB
p2423
sg19
Nsbag0
(g153
g2
Ntp2424
Rp2425
(dp2426
g15
(lp2427
sg17
I4
sg158
Nsg159
VHSB
p2428
sg19
Nsbasg17
I2
sg40
VModel
p2429
sg19
Nsbag0
(g35
g2
Ntp2430
Rp2431
(dp2432
g15
(lp2433
sg17
I2
sg40
VValue
p2434
sg19
Nsbasg17
I1
sg18
g2380
sg19
Vxcolor
p2435
sbsVbigtriangleright
p2436
g0
(g11
g2
Ntp2437
Rp2438
(dp2439
g15
(lp2440
sg17
I1
sg18
g2436
sg19
NsbsVtableofcontents
p2441
g0
(g11
g2
Ntp2442
Rp2443
(dp2444
g15
(lp2445
sg17
I1
sg18
g2441
sg19
NsbsVLarge
p2446
g0
(g11
g2
Ntp2447
Rp2448
(dp2449
g15
(lp2450
sg17
I1
sg18
g2446
sg19
NsbsVdownarrow
p2451
g0
(g11
g2
Ntp2452
Rp2453
(dp2454
g15
(lp2455
sg17
I1
sg18
g2451
sg19
NsbsVchapter*
p2456
g0
(g11
g2
Ntp2457
Rp2458
(dp2459
g15
(lp2460
g0
(g35
g2
Ntp2461
Rp2462
(dp2463
g15
(lp2464
sg17
I2
sg40
VHeading
p2465
sg19
Nsbasg17
I1
sg18
g2456
sg19
NsbsVsubseteq
p2466
g0
(g11
g2
Ntp2467
Rp2468
(dp2469
g15
(lp2470
sg17
I1
sg18
g2466
sg19
NsbsVcoth
p2471
g0
(g11
g2
Ntp2472
Rp2473
(dp2474
g15
(lp2475
sg17
I1
sg18
g2471
sg19
NsbsVprime
p2476
g0
(g11
g2
Ntp2477
Rp2478
(dp2479
g15
(lp2480
sg17
I1
sg18
g2476
sg19
NsbsVhspace*
p2481
g0
(g11
g2
Ntp2482
Rp2483
(dp2484
g15
(lp2485
g0
(g35
g2
Ntp2486
Rp2487
(dp2488
g15
(lp2489
sg17
I2
sg40
VWidth
p2490
sg19
Nsbasg17
I1
sg18
g2481
sg19
NsbsVbar
p2491
g0
(g11
g2
Ntp2492
Rp2493
(dp2494
g15
(lp2495
g0
(g35
g2
Ntp2496
Rp2497
(dp2498
g15
(lp2499
sg17
I2
sg40
VFormula
p2500
sg19
Nsbasg17
I1
sg18
g2491
sg19
NsbsVmedskip
p2501
g0
(g11
g2
Ntp2502
Rp2503
(dp2504
g15
(lp2505
sg17
I1
sg18
g2501
sg19
NsbsVgraphicspath
p2506
g0
(g11
g2
Ntp2507
Rp2508
(dp2509
g15
(lp2510
g0
(g35
g2
Ntp2511
Rp2512
(dp2513
g15
(lp2514
sg17
I2
sg40
VDirectory
p2515
sg19
Nsbasg17
I1
sg18
g2506
sg19
Vgraphicx
p2516
sbsVPr
p2517
g0
(g11
g2
Ntp2518
Rp2519
(dp2520
g15
(lp2521
sg17
I1
sg18
g2517
sg19
NsbsVddots
p2522
g0
(g11
g2
Ntp2523
Rp2524
(dp2525
g15
(lp2526
sg17
I1
sg18
g2522
sg19
NsbsVcleardoublepage
p2527
g0
(g11
g2
Ntp2528
Rp2529
(dp2530
g15
(lp2531
sg17
I1
sg18
g2527
sg19
NsbsVencl
p2532
g0
(g11
g2
Ntp2533
Rp2534
(dp2535
g15
(lp2536
g0
(g35
g2
Ntp2537
Rp2538
(dp2539
g15
(lp2540
sg17
I2
sg40
VEnclosures
p2541
sg19
Nsbasg17
I1
sg18
g2532
sg19
NsbsVframe
p2542
g0
(g11
g2
Ntp2543
Rp2544
(dp2545
g15
(lp2546
g0
(g35
g2
Ntp2547
Rp2548
(dp2549
g15
(lp2550
sg17
I2
sg40
VText
p2551
sg19
Nsbasg17
I1
sg18
g2542
sg19
NsbsVLARGE
p2552
g0
(g11
g2
Ntp2553
Rp2554
(dp2555
g15
(lp2556
sg17
I1
sg18
g2552
sg19
NsbsVsec
p2557
g0
(g11
g2
Ntp2558
Rp2559
(dp2560
g15
(lp2561
sg17
I1
sg18
g2557
sg19
NsbsVarg
p2562
g0
(g11
g2
Ntp2563
Rp2564
(dp2565
g15
(lp2566
sg17
I1
sg18
g2562
sg19
NsbsVPi
p2567
g0
(g11
g2
Ntp2568
Rp2569
(dp2570
g15
(lp2571
sg17
I1
sg18
g2567
sg19
NsbsVsubsubsection*
p2572
g0
(g11
g2
Ntp2573
Rp2574
(dp2575
g15
(lp2576
g0
(g35
g2
Ntp2577
Rp2578
(dp2579
g15
(lp2580
sg17
I2
sg40
VHeading
p2581
sg19
Nsbasg17
I1
sg18
g2572
sg19
NsbsVlabel
p2582
g0
(g11
g2
Ntp2583
Rp2584
(dp2585
g15
(lp2586
g0
(g35
g2
Ntp2587
Rp2588
(dp2589
g15
(lp2590
sg17
I2
sg40
VName
p2591
sg19
Nsbasg17
I1
sg18
g2582
sg19
NsbsVlistoffigures
p2592
g0
(g11
g2
Ntp2593
Rp2594
(dp2595
g15
(lp2596
sg17
I1
sg18
g2592
sg19
NsbsVtheta
p2597
g0
(g11
g2
Ntp2598
Rp2599
(dp2600
g15
(lp2601
sg17
I1
sg18
g2597
sg19
NsbsVlongleftrightarrow
p2602
g0
(g11
g2
Ntp2603
Rp2604
(dp2605
g15
(lp2606
sg17
I1
sg18
g2602
sg19
NsbsVlg
p2607
g0
(g11
g2
Ntp2608
Rp2609
(dp2610
g15
(lp2611
sg17
I1
sg18
g2607
sg19
NsbsVomicron
p2612
g0
(g11
g2
Ntp2613
Rp2614
(dp2615
g15
(lp2616
sg17
I1
sg18
g2612
sg19
NsbsVwr
p2617
g0
(g11
g2
Ntp2618
Rp2619
(dp2620
g15
(lp2621
sg17
I1
sg18
g2617
sg19
NsbsVwp
p2622
g0
(g11
g2
Ntp2623
Rp2624
(dp2625
g15
(lp2626
sg17
I1
sg18
g2622
sg19
NsbsVker
p2627
g0
(g11
g2
Ntp2628
Rp2629
(dp2630
g15
(lp2631
sg17
I1
sg18
g2627
sg19
NsbsVcos
p2632
g0
(g11
g2
Ntp2633
Rp2634
(dp2635
g15
(lp2636
sg17
I1
sg18
g2632
sg19
NsbsVcot
p2637
g0
(g11
g2
Ntp2638
Rp2639
(dp2640
g15
(lp2641
sg17
I1
sg18
g2637
sg19
NsbsVpagecolor
p2642
g0
(g11
g2
Ntp2643
Rp2644
(dp2645
g15
(lp2646
g0
(g35
g2
Ntp2647
Rp2648
(dp2649
g15
(lp2650
g0
(g132
g2
Ntp2651
Rp2652
(dp2653
g15
(lp2654
sg17
I5
sg18
VColors
p2655
sg19
Nsbasg17
I2
sg40
VName
p2656
sg19
Nsbasg17
I1
sg18
g2642
sg19
Vcolor
p2657
sbsVcup
p2658
g0
(g11
g2
Ntp2659
Rp2660
(dp2661
g15
(lp2662
sg17
I1
sg18
g2658
sg19
NsbsVln
p2663
g0
(g11
g2
Ntp2664
Rp2665
(dp2666
g15
(lp2667
sg17
I1
sg18
g2663
sg19
NsbsVeta
p2668
g0
(g11
g2
Ntp2669
Rp2670
(dp2671
g15
(lp2672
sg17
I1
sg18
g2668
sg19
NsbsVforall
p2673
g0
(g11
g2
Ntp2674
Rp2675
(dp2676
g15
(lp2677
sg17
I1
sg18
g2673
sg19
NsbsVoverset
p2678
g0
(g11
g2
Ntp2679
Rp2680
(dp2681
g15
(lp2682
g0
(g35
g2
Ntp2683
Rp2684
(dp2685
g15
(lp2686
sg17
I2
sg40
VOver
p2687
sg19
Nsbag0
(g35
g2
Ntp2688
Rp2689
(dp2690
g15
(lp2691
sg17
I2
sg40
VFormula
p2692
sg19
Nsbasg17
I1
sg18
g2678
sg19
Vamsmath
p2693
sbsVhbar
p2694
g0
(g11
g2
Ntp2695
Rp2696
(dp2697
g15
(lp2698
sg17
I1
sg18
g2694
sg19
NsbsVreflectbox
p2699
g0
(g11
g2
Ntp2700
Rp2701
(dp2702
g15
(lp2703
g0
(g35
g2
Ntp2704
Rp2705
(dp2706
g15
(lp2707
sg17
I2
sg40
VContent
p2708
sg19
Nsbasg17
I1
sg18
g2699
sg19
Vgraphicx
p2709
sbsVnewlength
p2710
g0
(g11
g2
Ntp2711
Rp2712
(dp2713
g15
(lp2714
g0
(g35
g2
Ntp2715
Rp2716
(dp2717
g15
(lp2718
sg17
I2
sg40
VName
p2719
sg19
Nsbasg17
I1
sg18
g2710
sg19
NsbsVcc
p2720
g0
(g11
g2
Ntp2721
Rp2722
(dp2723
g15
(lp2724
g0
(g35
g2
Ntp2725
Rp2726
(dp2727
g15
(lp2728
sg17
I2
sg40
VNames
p2729
sg19
Nsbasg17
I1
sg18
g2720
sg19
NsbsVinf
p2730
g0
(g11
g2
Ntp2731
Rp2732
(dp2733
g15
(lp2734
sg17
I1
sg18
g2730
sg19
NsbsVfootnotesize
p2735
g0
(g11
g2
Ntp2736
Rp2737
(dp2738
g15
(lp2739
sg17
I1
sg18
g2735
sg19
NsbsVsqcup
p2740
g0
(g11
g2
Ntp2741
Rp2742
(dp2743
g15
(lp2744
sg17
I1
sg18
g2740
sg19
NsbsVzeta
p2745
g0
(g11
g2
Ntp2746
Rp2747
(dp2748
g15
(lp2749
sg17
I1
sg18
g2745
sg19
NsbsVbigcirc
p2750
g0
(g11
g2
Ntp2751
Rp2752
(dp2753
g15
(lp2754
sg17
I1
sg18
g2750
sg19
NsbsVmapsto
p2755
g0
(g11
g2
Ntp2756
Rp2757
(dp2758
g15
(lp2759
sg17
I1
sg18
g2755
sg19
NsbsVtiny
p2760
g0
(g11
g2
Ntp2761
Rp2762
(dp2763
g15
(lp2764
sg17
I1
sg18
g2760
sg19
NsbsVsqsupseteq
p2765
g0
(g11
g2
Ntp2766
Rp2767
(dp2768
g15
(lp2769
sg17
I1
sg18
g2765
sg19
NsbsVBeta
p2770
g0
(g11
g2
Ntp2771
Rp2772
(dp2773
g15
(lp2774
sg17
I1
sg18
g2770
sg19
NsbsVpropto
p2775
g0
(g11
g2
Ntp2776
Rp2777
(dp2778
g15
(lp2779
sg17
I1
sg18
g2775
sg19
NsbsVpi
p2780
g0
(g11
g2
Ntp2781
Rp2782
(dp2783
g15
(lp2784
sg17
I1
sg18
g2780
sg19
NsbsVpm
p2785
g0
(g11
g2
Ntp2786
Rp2787
(dp2788
g15
(lp2789
sg17
I1
sg18
g2785
sg19
NsbsVarcsin
p2790
g0
(g11
g2
Ntp2791
Rp2792
(dp2793
g15
(lp2794
sg17
I1
sg18
g2790
sg19
NsbsVcolumnsep
p2795
g0
(g11
g2
Ntp2796
Rp2797
(dp2798
g15
(lp2799
sg17
I1
sg18
g2795
sg19
NsbsVLongrightarrow
p2800
g0
(g11
g2
Ntp2801
Rp2802
(dp2803
g15
(lp2804
sg17
I1
sg18
g2800
sg19
NsbsVkappa
p2805
g0
(g11
g2
Ntp2806
Rp2807
(dp2808
g15
(lp2809
sg17
I1
sg18
g2805
sg19
NsbsVtanh
p2810
g0
(g11
g2
Ntp2811
Rp2812
(dp2813
g15
(lp2814
sg17
I1
sg18
g2810
sg19
NsbsVhat
p2815
g0
(g11
g2
Ntp2816
Rp2817
(dp2818
g15
(lp2819
g0
(g35
g2
Ntp2820
Rp2821
(dp2822
g15
(lp2823
sg17
I2
sg40
VText
p2824
sg19
Nsbasg17
I1
sg18
g2815
sg19
NsbsVdiamondsuit
p2825
g0
(g11
g2
Ntp2826
Rp2827
(dp2828
g15
(lp2829
sg17
I1
sg18
g2825
sg19
NsbsVsetminus
p2830
g0
(g11
g2
Ntp2831
Rp2832
(dp2833
g15
(lp2834
sg17
I1
sg18
g2830
sg19
NsbsVvspace*
p2835
g0
(g11
g2
Ntp2836
Rp2837
(dp2838
g15
(lp2839
g0
(g35
g2
Ntp2840
Rp2841
(dp2842
g15
(lp2843
sg17
I2
sg40
VHeight
p2844
sg19
Nsbasg17
I1
sg18
g2835
sg19
NsbsVvspace
p2845
g0
(g11
g2
Ntp2846
Rp2847
(dp2848
g15
(lp2849
g0
(g35
g2
Ntp2850
Rp2851
(dp2852
g15
(lp2853
sg17
I2
sg40
VHeight
p2854
sg19
Nsbasg17
I1
sg18
g2845
sg19
NsbsVmbox
p2855
g0
(g11
g2
Ntp2856
Rp2857
(dp2858
g15
(lp2859
g0
(g35
g2
Ntp2860
Rp2861
(dp2862
g15
(lp2863
sg17
I2
sg40
VText
p2864
sg19
Nsbasg17
I1
sg18
g2855
sg19
NsbsVsetlength
p2865
g0
(g11
g2
Ntp2866
Rp2867
(dp2868
g15
(lp2869
g0
(g35
g2
Ntp2870
Rp2871
(dp2872
g15
(lp2873
sg17
I2
sg40
VLengthCommand
p2874
sg19
Nsbag0
(g35
g2
Ntp2875
Rp2876
(dp2877
g15
(lp2878
sg17
I2
sg40
VValue
p2879
sg19
Nsbasg17
I1
sg18
g2865
sg19
NsbsVvdots
p2880
g0
(g11
g2
Ntp2881
Rp2882
(dp2883
g15
(lp2884
sg17
I1
sg18
g2880
sg19
NsbsVfootnotetext
p2885
g0
(g11
g2
Ntp2886
Rp2887
(dp2888
g15
(lp2889
g0
(g222
g2
Ntp2890
Rp2891
(dp2892
g15
(lp2893
sg17
I3
sg40
VNumber
p2894
sg19
Nsbag0
(g35
g2
Ntp2895
Rp2896
(dp2897
g15
(lp2898
sg17
I2
sg40
VText
p2899
sg19
Nsbasg17
I1
sg18
g2885
sg19
NsbsVsucceq
p2900
g0
(g11
g2
Ntp2901
Rp2902
(dp2903
g15
(lp2904
sg17
I1
sg18
g2900
sg19
NsbsVnabla
p2905
g0
(g11
g2
Ntp2906
Rp2907
(dp2908
g15
(lp2909
sg17
I1
sg18
g2905
sg19
NsbsVleadsto
p2910
g0
(g11
g2
Ntp2911
Rp2912
(dp2913
g15
(lp2914
sg17
I1
sg18
g2910
sg19
NsbsVtexttt
p2915
g0
(g11
g2
Ntp2916
Rp2917
(dp2918
g15
(lp2919
g0
(g35
g2
Ntp2920
Rp2921
(dp2922
g15
(lp2923
sg17
I2
sg40
VText
p2924
sg19
Nsbasg17
I1
sg18
g2915
sg19
NsbsVit
p2925
g0
(g11
g2
Ntp2926
Rp2927
(dp2928
g15
(lp2929
sg17
I1
sg18
g2925
sg19
NsbsVbibliographystyle
p2930
g0
(g11
g2
Ntp2931
Rp2932
(dp2933
g15
(lp2934
g0
(g35
g2
Ntp2935
Rp2936
(dp2937
g15
(lp2938
g0
(g153
g2
Ntp2939
Rp2940
(dp2941
g15
(lp2942
sg17
I4
sg158
Nsg159
Vplain
p2943
sg19
Nsbag0
(g153
g2
Ntp2944
Rp2945
(dp2946
g15
(lp2947
sg17
I4
sg158
Nsg159
Valpha
p2948
sg19
Nsbag0
(g153
g2
Ntp2949
Rp2950
(dp2951
g15
(lp2952
sg17
I4
sg158
Nsg159
Vabbrv
p2953
sg19
Nsbasg17
I2
sg40
VStyle
p2954
sg19
Nsbasg17
I1
sg18
g2930
sg19
NsbsVcong
p2955
g0
(g11
g2
Ntp2956
Rp2957
(dp2958
g15
(lp2959
sg17
I1
sg18
g2955
sg19
NsbsVarabic
p2960
g0
(g11
g2
Ntp2961
Rp2962
(dp2963
g15
(lp2964
g0
(g35
g2
Ntp2965
Rp2966
(dp2967
g15
(lp2968
sg17
I2
sg40
VCounter
p2969
sg19
Nsbasg17
I1
sg18
g2960
sg19
NsbsVincludegraphics
p2970
g0
(g11
g2
Ntp2971
Rp2972
(dp2973
g15
(lp2974
g0
(g222
g2
Ntp2975
Rp2976
(dp2977
g15
(lp2978
sg17
I3
sg40
VOptions
p2979
sg19
Nsbag0
(g35
g2
Ntp2980
Rp2981
(dp2982
g15
(lp2983
g0
(g132
g2
Ntp2984
Rp2985
(dp2986
g15
(lp2987
sg17
I5
sg18
VImageFiles
p2988
sg19
Nsbasg17
I2
sg40
VFile
p2989
sg19
Nsbasg17
I1
sg18
g2970
sg19
Vgraphicx
p2990
sbsVoplus
p2991
g0
(g11
g2
Ntp2992
Rp2993
(dp2994
g15
(lp2995
sg17
I1
sg18
g2991
sg19
NsbsVrightarrow
p2996
g0
(g11
g2
Ntp2997
Rp2998
(dp2999
g15
(lp3000
sg17
I1
sg18
g2996
sg19
NsbsVnumberline
p3001
g0
(g11
g2
Ntp3002
Rp3003
(dp3004
g15
(lp3005
g0
(g35
g2
Ntp3006
Rp3007
(dp3008
g15
(lp3009
sg17
I2
sg40
VNumber
p3010
sg19
Nsbag0
(g35
g2
Ntp3011
Rp3012
(dp3013
g15
(lp3014
sg17
I2
sg40
VEntry
p3015
sg19
Nsbasg17
I1
sg18
g3001
sg19
NsbsVauthor
p3016
g0
(g11
g2
Ntp3017
Rp3018
(dp3019
g15
(lp3020
g0
(g35
g2
Ntp3021
Rp3022
(dp3023
g15
(lp3024
sg17
I2
sg40
VAuthor
p3025
sg19
Nsbasg17
I1
sg18
g3016
sg19
NsbsVsqrt
p3026
g0
(g11
g2
Ntp3027
Rp3028
(dp3029
g15
(lp3030
g0
(g222
g2
Ntp3031
Rp3032
(dp3033
g15
(lp3034
sg17
I3
sg40
VRoot
p3035
sg19
Nsbag0
(g35
g2
Ntp3036
Rp3037
(dp3038
g15
(lp3039
sg17
I2
sg40
VFormula
p3040
sg19
Nsbasg17
I1
sg18
Vsqrt
p3041
sg19
NsbsVoint
p3042
g0
(g11
g2
Ntp3043
Rp3044
(dp3045
g15
(lp3046
sg17
I1
sg18
g3042
sg19
NsbsVgets
p3047
g0
(g11
g2
Ntp3048
Rp3049
(dp3050
g15
(lp3051
sg17
I1
sg18
g3047
sg19
NsbsVphi
p3052
g0
(g11
g2
Ntp3053
Rp3054
(dp3055
g15
(lp3056
sg17
I1
sg18
g3052
sg19
NsbsVni
p3057
g0
(g11
g2
Ntp3058
Rp3059
(dp3060
g15
(lp3061
sg17
I1
sg18
g3057
sg19
NsbsVlongmapsto
p3062
g0
(g11
g2
Ntp3063
Rp3064
(dp3065
g15
(lp3066
sg17
I1
sg18
g3062
sg19
NsbsVEta
p3067
g0
(g11
g2
Ntp3068
Rp3069
(dp3070
g15
(lp3071
sg17
I1
sg18
g3067
sg19
NsbsVGamma
p3072
g0
(g11
g2
Ntp3073
Rp3074
(dp3075
g15
(lp3076
sg17
I1
sg18
g3072
sg19
NsbsVpart*
p3077
g0
(g11
g2
Ntp3078
Rp3079
(dp3080
g15
(lp3081
g0
(g35
g2
Ntp3082
Rp3083
(dp3084
g15
(lp3085
sg17
I2
sg40
VHeading
p3086
sg19
Nsbasg17
I1
sg18
g3077
sg19
NsbsVleftharpoonup
p3087
g0
(g11
g2
Ntp3088
Rp3089
(dp3090
g15
(lp3091
sg17
I1
sg18
g3087
sg19
NsbsVbigskip
p3092
g0
(g11
g2
Ntp3093
Rp3094
(dp3095
g15
(lp3096
sg17
I1
sg18
g3092
sg19
NsbsVIm
p3097
g0
(g11
g2
Ntp3098
Rp3099
(dp3100
g15
(lp3101
sg17
I1
sg18
g3097
sg19
NsbsVmulticolumn
p3102
g0
(g11
g2
Ntp3103
Rp3104
(dp3105
g15
(lp3106
g0
(g35
g2
Ntp3107
Rp3108
(dp3109
g15
(lp3110
sg17
I2
sg40
VNumOfCols
p3111
sg19
Nsbag0
(g35
g2
Ntp3112
Rp3113
(dp3114
g15
(lp3115
sg17
I2
sg40
VLayout
p3116
sg19
Nsbag0
(g35
g2
Ntp3117
Rp3118
(dp3119
g15
(lp3120
sg17
I2
sg40
VText
p3121
sg19
Nsbasg17
I1
sg18
g3102
sg19
NsbsVlim
p3122
g0
(g11
g2
Ntp3123
Rp3124
(dp3125
g15
(lp3126
sg17
I1
sg18
g3122
sg19
NsbsVnewpage
p3127
g0
(g11
g2
Ntp3128
Rp3129
(dp3130
g15
(lp3131
sg17
I1
sg18
g3127
sg19
NsbsVleft
p3132
g0
(g11
g2
Ntp3133
Rp3134
(dp3135
g15
(lp3136
sg17
I1
sg18
g3132
sg19
NsbsVchord
p3137
g0
(g11
g2
Ntp3138
Rp3139
(dp3140
g15
(lp3141
g0
(g35
g2
Ntp3142
Rp3143
(dp3144
g15
(lp3145
sg17
I2
sg40
VParameter
p3146
sg19
Nsbag0
(g35
g2
Ntp3147
Rp3148
(dp3149
g15
(lp3150
sg17
I2
sg40
VPositions
p3151
sg19
Nsbag0
(g35
g2
Ntp3152
Rp3153
(dp3154
g15
(lp3155
sg17
I2
sg40
VName
p3156
sg19
Nsbasg17
I1
sg18
g3137
sg19
NsbsVscalebox
p3157
g0
(g11
g2
Ntp3158
Rp3159
(dp3160
g15
(lp3161
g0
(g35
g2
Ntp3162
Rp3163
(dp3164
g15
(lp3165
sg17
I2
sg40
VHScale
p3166
sg19
Nsbag0
(g222
g2
Ntp3167
Rp3168
(dp3169
g15
(lp3170
sg17
I3
sg40
VVScale
p3171
sg19
Nsbag0
(g35
g2
Ntp3172
Rp3173
(dp3174
g15
(lp3175
sg17
I2
sg40
VContent
p3176
sg19
Nsbasg17
I1
sg18
g3157
sg19
Vgraphicx
p3177
sbsVbigotimes
p3178
g0
(g11
g2
Ntp3179
Rp3180
(dp3181
g15
(lp3182
sg17
I1
sg18
g3178
sg19
NsbsVkill
p3183
g0
(g11
g2
Ntp3184
Rp3185
(dp3186
g15
(lp3187
sg17
I1
sg18
g3183
sg19
NsbsVtilde
p3188
g0
(g11
g2
Ntp3189
Rp3190
(dp3191
g15
(lp3192
g0
(g35
g2
Ntp3193
Rp3194
(dp3195
g15
(lp3196
sg17
I2
sg40
VText
p3197
sg19
Nsbasg17
I1
sg18
g3188
sg19
NsbsVbaselineskip
p3198
g0
(g11
g2
Ntp3199
Rp3200
(dp3201
g15
(lp3202
sg17
I1
sg18
g3198
sg19
NsbsVjmath
p3203
g0
(g11
g2
Ntp3204
Rp3205
(dp3206
g15
(lp3207
sg17
I1
sg18
g3203
sg19
NsbsVcoprod
p3208
g0
(g11
g2
Ntp3209
Rp3210
(dp3211
g15
(lp3212
sg17
I1
sg18
g3208
sg19
NsbsVunderline
p3213
g0
(g11
g2
Ntp3214
Rp3215
(dp3216
g15
(lp3217
g0
(g35
g2
Ntp3218
Rp3219
(dp3220
g15
(lp3221
sg17
I2
sg40
VText
p3222
sg19
Nsbasg17
I1
sg18
g3213
sg19
NsbsVbibliography
p3223
g0
(g11
g2
Ntp3224
Rp3225
(dp3226
g15
(lp3227
g0
(g35
g2
Ntp3228
Rp3229
(dp3230
g15
(lp3231
g0
(g132
g2
Ntp3232
Rp3233
(dp3234
g15
(lp3235
sg17
I5
sg18
VBibFiles
p3236
sg19
Nsbasg17
I2
sg40
VFiles
p3237
sg19
Nsbasg17
I1
sg18
g3223
sg19
NsbsVell
p3238
g0
(g11
g2
Ntp3239
Rp3240
(dp3241
g15
(lp3242
sg17
I1
sg18
g3238
sg19
NsbsVnewenvironment
p3243
g0
(g11
g2
Ntp3244
Rp3245
(dp3246
g15
(lp3247
g0
(g35
g2
Ntp3248
Rp3249
(dp3250
g15
(lp3251
sg17
I2
sg40
VName
p3252
sg19
Nsbag0
(g222
g2
Ntp3253
Rp3254
(dp3255
g15
(lp3256
sg17
I3
sg40
VNumOfArguments
p3257
sg19
Nsbag0
(g35
g2
Ntp3258
Rp3259
(dp3260
g15
(lp3261
sg17
I2
sg40
VBegin
p3262
sg19
Nsbag0
(g35
g2
Ntp3263
Rp3264
(dp3265
g15
(lp3266
sg17
I2
sg40
VEnd
p3267
sg19
Nsbasg17
I1
sg18
g3243
sg19
NsbsVtextbf
p3268
g0
(g11
g2
Ntp3269
Rp3270
(dp3271
g15
(lp3272
g0
(g35
g2
Ntp3273
Rp3274
(dp3275
g15
(lp3276
sg17
I2
sg40
VText
p3277
sg19
Nsbasg17
I1
sg18
g3268
sg19
NsbsVcolor
p3278
g0
(g11
g2
Ntp3279
Rp3280
(dp3281
g15
(lp3282
g0
(g35
g2
Ntp3283
Rp3284
(dp3285
g15
(lp3286
g0
(g132
g2
Ntp3287
Rp3288
(dp3289
g15
(lp3290
sg17
I5
sg18
VColors
p3291
sg19
Nsbasg17
I2
sg40
VName
p3292
sg19
Nsbasg17
I1
sg18
g3278
sg19
Vcolor
p3293
sbsVcdots
p3294
g0
(g11
g2
Ntp3295
Rp3296
(dp3297
g15
(lp3298
sg17
I1
sg18
g3294
sg19
NsbsVinput
p3299
g0
(g11
g2
Ntp3300
Rp3301
(dp3302
g15
(lp3303
g0
(g35
g2
Ntp3304
Rp3305
(dp3306
g15
(lp3307
g0
(g132
g2
Ntp3308
Rp3309
(dp3310
g15
(lp3311
sg17
I5
sg18
VTexFiles
p3312
sg19
Nsbasg17
I2
sg40
VFile
p3313
sg19
Nsbasg17
I1
sg18
g3299
sg19
NsbsVfancyhead
p3314
g0
(g11
g2
Ntp3315
Rp3316
(dp3317
g15
(lp3318
g0
(g222
g2
Ntp3319
Rp3320
(dp3321
g15
(lp3322
sg17
I3
sg40
VPosition
p3323
sg19
Nsbag0
(g35
g2
Ntp3324
Rp3325
(dp3326
g15
(lp3327
sg17
I2
sg40
VText
p3328
sg19
Nsbasg17
I1
sg18
g3314
sg19
NsbsVpsi
p3329
g0
(g11
g2
Ntp3330
Rp3331
(dp3332
g15
(lp3333
sg17
I1
sg18
g3329
sg19
NsbsVfrown
p3334
g0
(g11
g2
Ntp3335
Rp3336
(dp3337
g15
(lp3338
sg17
I1
sg18
g3334
sg19
NsbsVmho
p3339
g0
(g11
g2
Ntp3340
Rp3341
(dp3342
g15
(lp3343
sg17
I1
sg18
g3339
sg19
Vlatexsym
p3344
sbsVthreadinfodict
p3345
g0
(g11
g2
Ntp3346
Rp3347
(dp3348
g15
(lp3349
sg17
I1
sg18
g3345
sg19
Vpdfpages
p3350
sbsVdotfill
p3351
g0
(g11
g2
Ntp3352
Rp3353
(dp3354
g15
(lp3355
sg17
I1
sg18
g3351
sg19
NsbsVoslash
p3356
g0
(g11
g2
Ntp3357
Rp3358
(dp3359
g15
(lp3360
sg17
I1
sg18
g3356
sg19
NsbsVacute
p3361
g0
(g11
g2
Ntp3362
Rp3363
(dp3364
g15
(lp3365
g0
(g35
g2
Ntp3366
Rp3367
(dp3368
g15
(lp3369
sg17
I2
sg40
VText
p3370
sg19
Nsbasg17
I1
sg18
g3361
sg19
NsbsVsqsubset
p3371
g0
(g11
g2
Ntp3372
Rp3373
(dp3374
g15
(lp3375
sg17
I1
sg18
g3371
sg19
Vlatexsym
p3376
sbsVcdot
p3377
g0
(g11
g2
Ntp3378
Rp3379
(dp3380
g15
(lp3381
sg17
I1
sg18
g3377
sg19
NsbsVleftrightarrow
p3382
g0
(g11
g2
Ntp3383
Rp3384
(dp3385
g15
(lp3386
sg17
I1
sg18
g3382
sg19
NsbsVswarrow
p3387
g0
(g11
g2
Ntp3388
Rp3389
(dp3390
g15
(lp3391
sg17
I1
sg18
g3387
sg19
NsbsVrightleftharpoons
p3392
g0
(g11
g2
Ntp3393
Rp3394
(dp3395
g15
(lp3396
sg17
I1
sg18
g3392
sg19
NsbsVclearpage
p3397
g0
(g11
g2
Ntp3398
Rp3399
(dp3400
g15
(lp3401
sg17
I1
sg18
g3397
sg19
NsbsVsurd
p3402
g0
(g11
g2
Ntp3403
Rp3404
(dp3405
g15
(lp3406
sg17
I1
sg18
g3402
sg19
NsbsVemph
p3407
g0
(g11
g2
Ntp3408
Rp3409
(dp3410
g15
(lp3411
g0
(g35
g2
Ntp3412
Rp3413
(dp3414
g15
(lp3415
sg17
I2
sg40
VText
p3416
sg19
Nsbasg17
I1
sg18
g3407
sg19
NsbsVmarkboth
p3417
g0
(g11
g2
Ntp3418
Rp3419
(dp3420
g15
(lp3421
g0
(g35
g2
Ntp3422
Rp3423
(dp3424
g15
(lp3425
sg17
I2
sg40
VEvenHeader
p3426
sg19
Nsbag0
(g35
g2
Ntp3427
Rp3428
(dp3429
g15
(lp3430
sg17
I2
sg40
VOddHeader
p3431
sg19
Nsbasg17
I1
sg18
g3417
sg19
NsbsVexists
p3432
g0
(g11
g2
Ntp3433
Rp3434
(dp3435
g15
(lp3436
sg17
I1
sg18
g3432
sg19
NsbsVbottom
p3437
g0
(g11
g2
Ntp3438
Rp3439
(dp3440
g15
(lp3441
sg17
I1
sg18
g3437
sg19
NsbsVsqsupset
p3442
g0
(g11
g2
Ntp3443
Rp3444
(dp3445
g15
(lp3446
sg17
I1
sg18
g3442
sg19
Vlatexsym
p3447
sbsVcirc
p3448
g0
(g11
g2
Ntp3449
Rp3450
(dp3451
g15
(lp3452
sg17
I1
sg18
g3448
sg19
NsbsVmathcal
p3453
g0
(g11
g2
Ntp3454
Rp3455
(dp3456
g15
(lp3457
g0
(g35
g2
Ntp3458
Rp3459
(dp3460
g15
(lp3461
sg17
I2
sg40
VFormula
p3462
sg19
Nsbasg17
I1
sg18
g3453
sg19
NsbsVprod
p3463
g0
(g11
g2
Ntp3464
Rp3465
(dp3466
g15
(lp3467
sg17
I1
sg18
g3463
sg19
NsbsVboldmath
p3468
g0
(g11
g2
Ntp3469
Rp3470
(dp3471
g15
(lp3472
sg17
I1
sg18
g3468
sg19
NsbsVBox
p3473
g0
(g11
g2
Ntp3474
Rp3475
(dp3476
g15
(lp3477
sg17
I1
sg18
VBox
p3478
sg19
NsbsVbf
p3479
g0
(g11
g2
Ntp3480
Rp3481
(dp3482
g15
(lp3483
sg17
I1
sg18
g3479
sg19
NsbsVunderbrace
p3484
g0
(g11
g2
Ntp3485
Rp3486
(dp3487
g15
(lp3488
g0
(g35
g2
Ntp3489
Rp3490
(dp3491
g15
(lp3492
sg17
I2
sg40
VFormula
p3493
sg19
Nsbasg17
I1
sg18
g3484
sg19
NsbsVarraycolsep
p3494
g0
(g11
g2
Ntp3495
Rp3496
(dp3497
g15
(lp3498
sg17
I1
sg18
g3494
sg19
NsbsVodot
p3499
g0
(g11
g2
Ntp3500
Rp3501
(dp3502
g15
(lp3503
sg17
I1
sg18
g3499
sg19
NsbsVUparrow
p3504
g0
(g11
g2
Ntp3505
Rp3506
(dp3507
g15
(lp3508
sg17
I1
sg18
g3504
sg19
NsbsVparagraph*
p3509
g0
(g11
g2
Ntp3510
Rp3511
(dp3512
g15
(lp3513
g0
(g35
g2
Ntp3514
Rp3515
(dp3516
g15
(lp3517
sg17
I2
sg40
VHeading
p3518
sg19
Nsbasg17
I1
sg18
g3509
sg19
NsbsVhookleftarrow
p3519
g0
(g11
g2
Ntp3520
Rp3521
(dp3522
g15
(lp3523
sg17
I1
sg18
g3519
sg19
NsbsVupchord
p3524
g0
(g11
g2
Ntp3525
Rp3526
(dp3527
g15
(lp3528
g0
(g35
g2
Ntp3529
Rp3530
(dp3531
g15
(lp3532
sg17
I2
sg40
VName
p3533
sg19
Nsbasg17
I1
sg18
g3524
sg19
NsbsVmarkright
p3534
g0
(g11
g2
Ntp3535
Rp3536
(dp3537
g15
(lp3538
g0
(g35
g2
Ntp3539
Rp3540
(dp3541
g15
(lp3542
sg17
I2
sg40
VHeader
p3543
sg19
Nsbasg17
I1
sg18
g3534
sg19
NsbsVaddcontents
p3544
g0
(g11
g2
Ntp3545
Rp3546
(dp3547
g15
(lp3548
g0
(g35
g2
Ntp3549
Rp3550
(dp3551
g15
(lp3552
g0
(g153
g2
Ntp3553
Rp3554
(dp3555
g15
(lp3556
sg17
I4
sg158
Nsg159
Vtoc
p3557
sg19
Nsbag0
(g153
g2
Ntp3558
Rp3559
(dp3560
g15
(lp3561
sg17
I4
sg158
Nsg159
Vlof
p3562
sg19
Nsbag0
(g153
g2
Ntp3563
Rp3564
(dp3565
g15
(lp3566
sg17
I4
sg158
Nsg159
Vlot
p3567
sg19
Nsbasg17
I2
sg40
VDestination
p3568
sg19
Nsbag0
(g35
g2
Ntp3569
Rp3570
(dp3571
g15
(lp3572
sg17
I2
sg40
VEntry
p3573
sg19
Nsbasg17
I1
sg18
g3544
sg19
NsbsVchapter
p3574
g0
(g11
g2
Ntp3575
Rp3576
(dp3577
g15
(lp3578
g0
(g222
g2
Ntp3579
Rp3580
(dp3581
g15
(lp3582
sg17
I3
sg40
VAlternative
p3583
sg19
Nsbag0
(g35
g2
Ntp3584
Rp3585
(dp3586
g15
(lp3587
sg17
I2
sg40
VHeading
p3588
sg19
Nsbasg17
I1
sg18
g3574
sg19
NsbsVvarepsilon
p3589
g0
(g11
g2
Ntp3590
Rp3591
(dp3592
g15
(lp3593
sg17
I1
sg18
g3589
sg19
NsbsVnwarrow
p3594
g0
(g11
g2
Ntp3595
Rp3596
(dp3597
g15
(lp3598
sg17
I1
sg18
g3594
sg19
NsbsVhookrightarrow
p3599
g0
(g11
g2
Ntp3600
Rp3601
(dp3602
g15
(lp3603
sg17
I1
sg18
g3599
sg19
NsbsVsubset
p3604
g0
(g11
g2
Ntp3605
Rp3606
(dp3607
g15
(lp3608
sg17
I1
sg18
g3604
sg19
NsbsVdagger
p3609
g0
(g11
g2
Ntp3610
Rp3611
(dp3612
g15
(lp3613
sg17
I1
sg18
g3609
sg19
NsbsVabovedisplayshortskip
p3614
g0
(g11
g2
Ntp3615
Rp3616
(dp3617
g15
(lp3618
sg17
I1
sg18
g3614
sg19
NsbsVpagebreak
p3619
g0
(g11
g2
Ntp3620
Rp3621
(dp3622
g15
(lp3623
sg17
I1
sg18
g3619
sg19
NsbsVvarphi
p3624
g0
(g11
g2
Ntp3625
Rp3626
(dp3627
g15
(lp3628
sg17
I1
sg18
g3624
sg19
NsbsVnocite
p3629
g0
(g11
g2
Ntp3630
Rp3631
(dp3632
g15
(lp3633
g0
(g35
g2
Ntp3634
Rp3635
(dp3636
g15
(lp3637
g0
(g132
g2
Ntp3638
Rp3639
(dp3640
g15
(lp3641
sg17
I5
sg18
VBibitems
p3642
sg19
Nsbasg17
I2
sg40
VKey
p3643
sg19
Nsbasg17
I1
sg18
g3629
sg19
NsbsVrightharpoondown
p3644
g0
(g11
g2
Ntp3645
Rp3646
(dp3647
g15
(lp3648
sg17
I1
sg18
g3644
sg19
NsbsVlog
p3649
g0
(g11
g2
Ntp3650
Rp3651
(dp3652
g15
(lp3653
sg17
I1
sg18
g3649
sg19
NsbsVbigcap
p3654
g0
(g11
g2
Ntp3655
Rp3656
(dp3657
g15
(lp3658
sg17
I1
sg18
g3654
sg19
NsbsVDownarrow
p3659
g0
(g11
g2
Ntp3660
Rp3661
(dp3662
g15
(lp3663
sg17
I1
sg18
g3659
sg19
NsbsVtbinom
p3664
g0
(g11
g2
Ntp3665
Rp3666
(dp3667
g15
(lp3668
g0
(g35
g2
Ntp3669
Rp3670
(dp3671
g15
(lp3672
sg17
I2
sg40
Vn
p3673
sg19
Nsbag0
(g35
g2
Ntp3674
Rp3675
(dp3676
g15
(lp3677
sg17
I2
sg40
Vk
p3678
sg19
Nsbasg17
I1
sg18
g3664
sg19
NsbsVDeclareGraphicsRule
p3679
g0
(g11
g2
Ntp3680
Rp3681
(dp3682
g15
(lp3683
g0
(g35
g2
Ntp3684
Rp3685
(dp3686
g15
(lp3687
sg17
I2
sg40
VExtension
p3688
sg19
Nsbag0
(g35
g2
Ntp3689
Rp3690
(dp3691
g15
(lp3692
sg17
I2
sg40
VType
p3693
sg19
Nsbag0
(g35
g2
Ntp3694
Rp3695
(dp3696
g15
(lp3697
sg17
I2
sg40
VSizeFile
p3698
sg19
Nsbag0
(g35
g2
Ntp3699
Rp3700
(dp3701
g15
(lp3702
sg17
I2
sg40
VCommand
p3703
sg19
Nsbasg17
I1
sg18
g3679
sg19
Vgraphicx
p3704
sbsVepsilon
p3705
g0
(g11
g2
Ntp3706
Rp3707
(dp3708
g15
(lp3709
sg17
I1
sg18
g3705
sg19
NsbsVarrayrulewidth
p3710
g0
(g11
g2
Ntp3711
Rp3712
(dp3713
g15
(lp3714
sg17
I1
sg18
g3710
sg19
NsbsVincludepdfset
p3715
g0
(g11
g2
Ntp3716
Rp3717
(dp3718
g15
(lp3719
g0
(g35
g2
Ntp3720
Rp3721
(dp3722
g15
(lp3723
sg17
I2
sg40
VGlobalOptions
p3724
sg19
Nsbasg17
I1
sg18
g3715
sg19
Vpdfpages
p3725
sbsVmathnormal
p3726
g0
(g11
g2
Ntp3727
Rp3728
(dp3729
g15
(lp3730
g0
(g35
g2
Ntp3731
Rp3732
(dp3733
g15
(lp3734
sg17
I2
sg40
VFormula
p3735
sg19
Nsbasg17
I1
sg18
g3726
sg19
NsbsVdelta
p3736
g0
(g11
g2
Ntp3737
Rp3738
(dp3739
g15
(lp3740
sg17
I1
sg18
g3736
sg19
NsbsVline
p3741
g0
(g11
g2
Ntp3742
Rp3743
(dp3744
g15
(lp3745
g0
(g35
g2
Ntp3746
Rp3747
(dp3748
g15
(lp3749
sg17
I2
sg40
g237
sg19
Nsbag0
(g35
g2
Ntp3750
Rp3751
(dp3752
g15
(lp3753
sg17
I2
sg40
VLength
p3754
sg19
Nsbasg17
I1
sg18
g3741
sg19
NsbsVAlph
p3755
g0
(g11
g2
Ntp3756
Rp3757
(dp3758
g15
(lp3759
g0
(g35
g2
Ntp3760
Rp3761
(dp3762
g15
(lp3763
sg17
I2
sg40
VCounter
p3764
sg19
Nsbasg17
I1
sg18
g3755
sg19
NsbsVliminf
p3765
g0
(g11
g2
Ntp3766
Rp3767
(dp3768
g15
(lp3769
sg17
I1
sg18
g3765
sg19
NsbsVsection*
p3770
g0
(g11
g2
Ntp3771
Rp3772
(dp3773
g15
(lp3774
g0
(g35
g2
Ntp3775
Rp3776
(dp3777
g15
(lp3778
sg17
I2
sg40
VHeading
p3779
sg19
Nsbasg17
I1
sg18
g3770
sg19
NsbsVrotatebox
p3780
g0
(g11
g2
Ntp3781
Rp3782
(dp3783
g15
(lp3784
g0
(g35
g2
Ntp3785
Rp3786
(dp3787
g15
(lp3788
sg17
I2
sg40
VAngle
p3789
sg19
Nsbag0
(g35
g2
Ntp3790
Rp3791
(dp3792
g15
(lp3793
sg17
I2
sg40
VContent
p3794
sg19
Nsbasg17
I1
sg18
g3780
sg19
Vgraphicx
p3795
sbsVcfrac
p3796
g0
(g11
g2
Ntp3797
Rp3798
(dp3799
g15
(lp3800
g0
(g35
g2
Ntp3801
Rp3802
(dp3803
g15
(lp3804
sg17
I2
sg40
VNumerator
p3805
sg19
Nsbag0
(g35
g2
Ntp3806
Rp3807
(dp3808
g15
(lp3809
sg17
I2
sg40
VDenominator
p3810
sg19
Nsbasg17
I1
sg18
g3796
sg19
Vamsmath
p3811
sbsVint
p3812
g0
(g11
g2
Ntp3813
Rp3814
(dp3815
g15
(lp3816
sg17
I1
sg18
g3812
sg19
NsbsVright
p3817
g0
(g11
g2
Ntp3818
Rp3819
(dp3820
g15
(lp3821
sg17
I1
sg18
g3817
sg19
NsbsVddot
p3822
g0
(g11
g2
Ntp3823
Rp3824
(dp3825
g15
(lp3826
g0
(g35
g2
Ntp3827
Rp3828
(dp3829
g15
(lp3830
sg17
I2
sg40
VText
p3831
sg19
Nsbasg17
I1
sg18
g3822
sg19
NsbsVarraystretch
p3832
g0
(g11
g2
Ntp3833
Rp3834
(dp3835
g15
(lp3836
sg17
I1
sg18
g3832
sg19
NsbsVcheck
p3837
g0
(g11
g2
Ntp3838
Rp3839
(dp3840
g15
(lp3841
g0
(g35
g2
Ntp3842
Rp3843
(dp3844
g15
(lp3845
sg17
I2
sg40
VText
p3846
sg19
Nsbasg17
I1
sg18
g3837
sg19
NsbsVfill
p3847
g0
(g11
g2
Ntp3848
Rp3849
(dp3850
g15
(lp3851
sg17
I1
sg18
g3847
sg19
NsbsVUpdownarrow
p3852
g0
(g11
g2
Ntp3853
Rp3854
(dp3855
g15
(lp3856
sg17
I1
sg18
g3852
sg19
NsbsVdefinecolor
p3857
g0
(g11
g2
Ntp3858
Rp3859
(dp3860
g15
(lp3861
g0
(g35
g2
Ntp3862
Rp3863
(dp3864
g15
(lp3865
sg17
I2
sg40
VName
p3866
sg19
Nsbag0
(g35
g2
Ntp3867
Rp3868
(dp3869
g15
(lp3870
g0
(g153
g2
Ntp3871
Rp3872
(dp3873
g15
(lp3874
sg17
I4
sg158
Nsg159
Vrgb
p3875
sg19
Nsbag0
(g153
g2
Ntp3876
Rp3877
(dp3878
g15
(lp3879
sg17
I4
sg158
Nsg159
Vgray
p3880
sg19
Nsbag0
(g153
g2
Ntp3881
Rp3882
(dp3883
g15
(lp3884
sg17
I4
sg158
Nsg159
Vcmyk
p3885
sg19
Nsbag0
(g153
g2
Ntp3886
Rp3887
(dp3888
g15
(lp3889
sg17
I4
sg158
Nsg159
Vnamed
p3890
sg19
Nsbasg17
I2
sg40
VModel
p3891
sg19
Nsbag0
(g35
g2
Ntp3892
Rp3893
(dp3894
g15
(lp3895
sg17
I2
sg40
VValue
p3896
sg19
Nsbasg17
I1
sg18
g3857
sg19
Vcolor
p3897
sbsVmedskipamount
p3898
g0
(g11
g2
Ntp3899
Rp3900
(dp3901
g15
(lp3902
sg17
I1
sg18
g3898
sg19
NsbsVdocumentclass
p3903
g0
(g11
g2
Ntp3904
Rp3905
(dp3906
g15
(lp3907
g0
(g222
g2
Ntp3908
Rp3909
(dp3910
g15
(lp3911
sg17
I3
sg40
VStyleOptions
p3912
sg19
Nsbag0
(g35
g2
Ntp3913
Rp3914
(dp3915
g15
(lp3916
sg17
I2
sg40
VDocumentClass
p3917
sg19
Nsbasg17
I1
sg18
g3903
sg19
NsbsVlstinputlisting
p3918
g0
(g11
g2
Ntp3919
Rp3920
(dp3921
g15
(lp3922
g0
(g222
g2
Ntp3923
Rp3924
(dp3925
g15
(lp3926
sg17
I3
sg40
VOptions
p3927
sg19
Nsbag0
(g35
g2
Ntp3928
Rp3929
(dp3930
g15
(lp3931
sg17
I2
sg40
VFilename
p3932
sg19
Nsbasg17
I1
sg18
g3918
sg19
NsbsVarctan
p3933
g0
(g11
g2
Ntp3934
Rp3935
(dp3936
g15
(lp3937
sg17
I1
sg18
g3933
sg19
NsbsVsupseteq
p3938
g0
(g11
g2
Ntp3939
Rp3940
(dp3941
g15
(lp3942
sg17
I1
sg18
g3938
sg19
NsbsVnu
p3943
g0
(g11
g2
Ntp3944
Rp3945
(dp3946
g15
(lp3947
sg17
I1
sg18
g3943
sg19
NsbsVsearrow
p3948
g0
(g11
g2
Ntp3949
Rp3950
(dp3951
g15
(lp3952
sg17
I1
sg18
g3948
sg19
NsbsVresizebox
p3953
g0
(g11
g2
Ntp3954
Rp3955
(dp3956
g15
(lp3957
g0
(g35
g2
Ntp3958
Rp3959
(dp3960
g15
(lp3961
sg17
I2
sg40
VWidth
p3962
sg19
Nsbag0
(g35
g2
Ntp3963
Rp3964
(dp3965
g15
(lp3966
sg17
I2
sg40
VHeight
p3967
sg19
Nsbag0
(g35
g2
Ntp3968
Rp3969
(dp3970
g15
(lp3971
sg17
I2
sg40
VContent
p3972
sg19
Nsbasg17
I1
sg18
g3953
sg19
Vgraphicx
p3973
sbsVstar
p3974
g0
(g11
g2
Ntp3975
Rp3976
(dp3977
g15
(lp3978
sg17
I1
sg18
g3974
sg19
NsbsVmodels
p3979
g0
(g11
g2
Ntp3980
Rp3981
(dp3982
g15
(lp3983
sg17
I1
sg18
g3979
sg19
NsbsVominus
p3984
g0
(g11
g2
Ntp3985
Rp3986
(dp3987
g15
(lp3988
sg17
I1
sg18
g3984
sg19
NsbsVfrenchspacing
p3989
g0
(g11
g2
Ntp3990
Rp3991
(dp3992
g15
(lp3993
sg17
I1
sg18
g3989
sg19
NsbsVdashv
p3994
g0
(g11
g2
Ntp3995
Rp3996
(dp3997
g15
(lp3998
sg17
I1
sg18
Vdashv
p3999
sg19
NsbsVomega
p4000
g0
(g11
g2
Ntp4001
Rp4002
(dp4003
g15
(lp4004
sg17
I1
sg18
g4000
sg19
NsbsVrightharpoonup
p4005
g0
(g11
g2
Ntp4006
Rp4007
(dp4008
g15
(lp4009
sg17
I1
sg18
g4005
sg19
NsbsVdocumentstyle
p4010
g0
(g11
g2
Ntp4011
Rp4012
(dp4013
g15
(lp4014
g0
(g222
g2
Ntp4015
Rp4016
(dp4017
g15
(lp4018
sg17
I3
sg40
VStyleOptions
p4019
sg19
Nsbag0
(g35
g2
Ntp4020
Rp4021
(dp4022
g15
(lp4023
sg17
I2
sg40
VDocumentClass
p4024
sg19
Nsbasg17
I1
sg18
g4010
sg19
NsbsVbullet
p4025
g0
(g11
g2
Ntp4026
Rp4027
(dp4028
g15
(lp4029
sg17
I1
sg18
g4025
sg19
NsbsVchords
p4030
g0
(g11
g2
Ntp4031
Rp4032
(dp4033
g15
(lp4034
g0
(g35
g2
Ntp4035
Rp4036
(dp4037
g15
(lp4038
sg17
I2
sg40
VChords
p4039
sg19
Nsbasg17
I1
sg18
g4030
sg19
NsbsVoverline
p4040
g0
(g11
g2
Ntp4041
Rp4042
(dp4043
g15
(lp4044
g0
(g35
g2
Ntp4045
Rp4046
(dp4047
g15
(lp4048
sg17
I2
sg40
VFormula
p4049
sg19
Nsbasg17
I1
sg18
g4040
sg19
NsbsVdot
p4050
g0
(g11
g2
Ntp4051
Rp4052
(dp4053
g15
(lp4054
g0
(g35
g2
Ntp4055
Rp4056
(dp4057
g15
(lp4058
sg17
I2
sg40
VText
p4059
sg19
Nsbasg17
I1
sg18
g4050
sg19
NsbsVsin
p4060
g0
(g11
g2
Ntp4061
Rp4062
(dp4063
g15
(lp4064
sg17
I1
sg18
g4060
sg19
NsbsVabovedisplayskip
p4065
g0
(g11
g2
Ntp4066
Rp4067
(dp4068
g15
(lp4069
sg17
I1
sg18
g4065
sg19
NsbsVRightarrow
p4070
g0
(g11
g2
Ntp4071
Rp4072
(dp4073
g15
(lp4074
sg17
I1
sg18
VRightarrow
p4075
sg19
NsbsVmathrm
p4076
g0
(g11
g2
Ntp4077
Rp4078
(dp4079
g15
(lp4080
g0
(g35
g2
Ntp4081
Rp4082
(dp4083
g15
(lp4084
sg17
I2
sg40
VFormula
p4085
sg19
Nsbasg17
I1
sg18
g4076
sg19
NsbssS'_LanguageModel__placeholders'
p4086
(dp4087
g137
(lp4088
g134
ag3309
asg1821
(lp4089
g1818
ag3639
asg2201
(lp4090
g2198
asg1433
(lp4091
g1430
ag1526
ag1491
asg878
(lp4092
g875
asg3291
(lp4093
g3288
ag323
ag2652
ag1333
ag1011
ag1374
ag1384
asg3236
(lp4094
g3233
asg2988
(lp4095
g2985
assS'_LanguageModel__all_choices'
p4096
Nsb.